
./libs/lib_printer.so:     file format elf64-x86-64


Disassembly of section .init:

00000000000005f8 <_init>:
 5f8:	48 83 ec 08          	sub    $0x8,%rsp
 5fc:	48 8b 05 dd 39 20 00 	mov    0x2039dd(%rip),%rax        # 203fe0 <_DYNAMIC+0x1c8>
 603:	48 85 c0             	test   %rax,%rax
 606:	74 05                	je     60d <_init+0x15>
 608:	e8 43 00 00 00       	callq  650 <printf@plt+0x10>
 60d:	48 83 c4 08          	add    $0x8,%rsp
 611:	c3                   	retq   

Disassembly of section .plt:

0000000000000620 <strlen@plt-0x10>:
 620:	ff 35 e2 39 20 00    	pushq  0x2039e2(%rip)        # 204008 <_GLOBAL_OFFSET_TABLE_+0x8>
 626:	ff 25 e4 39 20 00    	jmpq   *0x2039e4(%rip)        # 204010 <_GLOBAL_OFFSET_TABLE_+0x10>
 62c:	0f 1f 40 00          	nopl   0x0(%rax)

0000000000000630 <strlen@plt>:
 630:	ff 25 e2 39 20 00    	jmpq   *0x2039e2(%rip)        # 204018 <_GLOBAL_OFFSET_TABLE_+0x18>
 636:	68 00 00 00 00       	pushq  $0x0
 63b:	e9 e0 ff ff ff       	jmpq   620 <_init+0x28>

0000000000000640 <printf@plt>:
 640:	ff 25 da 39 20 00    	jmpq   *0x2039da(%rip)        # 204020 <_GLOBAL_OFFSET_TABLE_+0x20>
 646:	68 01 00 00 00       	pushq  $0x1
 64b:	e9 d0 ff ff ff       	jmpq   620 <_init+0x28>

Disassembly of section .plt.got:

0000000000000650 <.plt.got>:
 650:	ff 25 8a 39 20 00    	jmpq   *0x20398a(%rip)        # 203fe0 <_DYNAMIC+0x1c8>
 656:	66 90                	xchg   %ax,%ax
 658:	ff 25 9a 39 20 00    	jmpq   *0x20399a(%rip)        # 203ff8 <_DYNAMIC+0x1e0>
 65e:	66 90                	xchg   %ax,%ax

Disassembly of section .text:

0000000000001000 <deregister_tm_clones>:
    1000:	48 8d 3d 29 30 20 00 	lea    0x203029(%rip),%rdi        # 204030 <_edata>
    1007:	48 8d 05 29 30 20 00 	lea    0x203029(%rip),%rax        # 204037 <_edata+0x7>
    100e:	55                   	push   %rbp
    100f:	48 29 f8             	sub    %rdi,%rax
    1012:	48 89 e5             	mov    %rsp,%rbp
    1015:	48 83 f8 0e          	cmp    $0xe,%rax
    1019:	76 15                	jbe    1030 <deregister_tm_clones+0x30>
    101b:	48 8b 05 b6 2f 20 00 	mov    0x202fb6(%rip),%rax        # 203fd8 <_DYNAMIC+0x1c0>
    1022:	48 85 c0             	test   %rax,%rax
    1025:	74 09                	je     1030 <deregister_tm_clones+0x30>
    1027:	5d                   	pop    %rbp
    1028:	ff e0                	jmpq   *%rax
    102a:	66 0f 1f 44 00 00    	nopw   0x0(%rax,%rax,1)
    1030:	5d                   	pop    %rbp
    1031:	c3                   	retq   
    1032:	0f 1f 40 00          	nopl   0x0(%rax)
    1036:	66 2e 0f 1f 84 00 00 	nopw   %cs:0x0(%rax,%rax,1)
    103d:	00 00 00 

0000000000001040 <register_tm_clones>:
    1040:	48 8d 3d e9 2f 20 00 	lea    0x202fe9(%rip),%rdi        # 204030 <_edata>
    1047:	48 8d 35 e2 2f 20 00 	lea    0x202fe2(%rip),%rsi        # 204030 <_edata>
    104e:	55                   	push   %rbp
    104f:	48 29 fe             	sub    %rdi,%rsi
    1052:	48 89 e5             	mov    %rsp,%rbp
    1055:	48 c1 fe 03          	sar    $0x3,%rsi
    1059:	48 89 f0             	mov    %rsi,%rax
    105c:	48 c1 e8 3f          	shr    $0x3f,%rax
    1060:	48 01 c6             	add    %rax,%rsi
    1063:	48 d1 fe             	sar    %rsi
    1066:	74 18                	je     1080 <register_tm_clones+0x40>
    1068:	48 8b 05 81 2f 20 00 	mov    0x202f81(%rip),%rax        # 203ff0 <_DYNAMIC+0x1d8>
    106f:	48 85 c0             	test   %rax,%rax
    1072:	74 0c                	je     1080 <register_tm_clones+0x40>
    1074:	5d                   	pop    %rbp
    1075:	ff e0                	jmpq   *%rax
    1077:	66 0f 1f 84 00 00 00 	nopw   0x0(%rax,%rax,1)
    107e:	00 00 
    1080:	5d                   	pop    %rbp
    1081:	c3                   	retq   
    1082:	0f 1f 40 00          	nopl   0x0(%rax)
    1086:	66 2e 0f 1f 84 00 00 	nopw   %cs:0x0(%rax,%rax,1)
    108d:	00 00 00 

0000000000001090 <__do_global_dtors_aux>:
    1090:	80 3d 99 2f 20 00 00 	cmpb   $0x0,0x202f99(%rip)        # 204030 <_edata>
    1097:	75 27                	jne    10c0 <__do_global_dtors_aux+0x30>
    1099:	48 83 3d 57 2f 20 00 	cmpq   $0x0,0x202f57(%rip)        # 203ff8 <_DYNAMIC+0x1e0>
    10a0:	00 
    10a1:	55                   	push   %rbp
    10a2:	48 89 e5             	mov    %rsp,%rbp
    10a5:	74 0c                	je     10b3 <__do_global_dtors_aux+0x23>
    10a7:	48 8b 3d 7a 2f 20 00 	mov    0x202f7a(%rip),%rdi        # 204028 <__dso_handle>
    10ae:	e8 a5 f5 ff ff       	callq  658 <printf@plt+0x18>
    10b3:	e8 48 ff ff ff       	callq  1000 <deregister_tm_clones>
    10b8:	5d                   	pop    %rbp
    10b9:	c6 05 70 2f 20 00 01 	movb   $0x1,0x202f70(%rip)        # 204030 <_edata>
    10c0:	f3 c3                	repz retq 
    10c2:	0f 1f 40 00          	nopl   0x0(%rax)
    10c6:	66 2e 0f 1f 84 00 00 	nopw   %cs:0x0(%rax,%rax,1)
    10cd:	00 00 00 

00000000000010d0 <frame_dummy>:
    10d0:	48 8d 3d 39 2d 20 00 	lea    0x202d39(%rip),%rdi        # 203e10 <__JCR_END__>
    10d7:	48 83 3f 00          	cmpq   $0x0,(%rdi)
    10db:	75 0b                	jne    10e8 <frame_dummy+0x18>
    10dd:	e9 5e ff ff ff       	jmpq   1040 <register_tm_clones>
    10e2:	66 0f 1f 44 00 00    	nopw   0x0(%rax,%rax,1)
    10e8:	48 8b 05 f9 2e 20 00 	mov    0x202ef9(%rip),%rax        # 203fe8 <_DYNAMIC+0x1d0>
    10ef:	48 85 c0             	test   %rax,%rax
    10f2:	74 e9                	je     10dd <frame_dummy+0xd>
    10f4:	55                   	push   %rbp
    10f5:	48 89 e5             	mov    %rsp,%rbp
    10f8:	ff d0                	callq  *%rax
    10fa:	5d                   	pop    %rbp
    10fb:	e9 40 ff ff ff       	jmpq   1040 <register_tm_clones>
    1100:	66 2e 0f 1f 84 00 00 	nopw   %cs:0x0(%rax,%rax,1)
    1107:	00 00 00 
    110a:	66 2e 0f 1f 84 00 00 	nopw   %cs:0x0(%rax,%rax,1)
    1111:	00 00 00 
    1114:	66 2e 0f 1f 84 00 00 	nopw   %cs:0x0(%rax,%rax,1)
    111b:	00 00 00 
    111e:	66 2e 0f 1f 84 00 00 	nopw   %cs:0x0(%rax,%rax,1)
    1125:	00 00 00 
    1128:	66 2e 0f 1f 84 00 00 	nopw   %cs:0x0(%rax,%rax,1)
    112f:	00 00 00 
    1132:	66 2e 0f 1f 84 00 00 	nopw   %cs:0x0(%rax,%rax,1)
    1139:	00 00 00 
    113c:	66 2e 0f 1f 84 00 00 	nopw   %cs:0x0(%rax,%rax,1)
    1143:	00 00 00 
    1146:	66 2e 0f 1f 84 00 00 	nopw   %cs:0x0(%rax,%rax,1)
    114d:	00 00 00 
    1150:	66 2e 0f 1f 84 00 00 	nopw   %cs:0x0(%rax,%rax,1)
    1157:	00 00 00 
    115a:	66 2e 0f 1f 84 00 00 	nopw   %cs:0x0(%rax,%rax,1)
    1161:	00 00 00 
    1164:	66 2e 0f 1f 84 00 00 	nopw   %cs:0x0(%rax,%rax,1)
    116b:	00 00 00 
    116e:	66 2e 0f 1f 84 00 00 	nopw   %cs:0x0(%rax,%rax,1)
    1175:	00 00 00 
    1178:	66 2e 0f 1f 84 00 00 	nopw   %cs:0x0(%rax,%rax,1)
    117f:	00 00 00 
    1182:	66 2e 0f 1f 84 00 00 	nopw   %cs:0x0(%rax,%rax,1)
    1189:	00 00 00 
    118c:	66 2e 0f 1f 84 00 00 	nopw   %cs:0x0(%rax,%rax,1)
    1193:	00 00 00 
    1196:	66 2e 0f 1f 84 00 00 	nopw   %cs:0x0(%rax,%rax,1)
    119d:	00 00 00 
    11a0:	66 2e 0f 1f 84 00 00 	nopw   %cs:0x0(%rax,%rax,1)
    11a7:	00 00 00 
    11aa:	66 2e 0f 1f 84 00 00 	nopw   %cs:0x0(%rax,%rax,1)
    11b1:	00 00 00 
    11b4:	66 2e 0f 1f 84 00 00 	nopw   %cs:0x0(%rax,%rax,1)
    11bb:	00 00 00 
    11be:	66 2e 0f 1f 84 00 00 	nopw   %cs:0x0(%rax,%rax,1)
    11c5:	00 00 00 
    11c8:	66 2e 0f 1f 84 00 00 	nopw   %cs:0x0(%rax,%rax,1)
    11cf:	00 00 00 
    11d2:	66 2e 0f 1f 84 00 00 	nopw   %cs:0x0(%rax,%rax,1)
    11d9:	00 00 00 
    11dc:	66 2e 0f 1f 84 00 00 	nopw   %cs:0x0(%rax,%rax,1)
    11e3:	00 00 00 
    11e6:	66 2e 0f 1f 84 00 00 	nopw   %cs:0x0(%rax,%rax,1)
    11ed:	00 00 00 
    11f0:	66 2e 0f 1f 84 00 00 	nopw   %cs:0x0(%rax,%rax,1)
    11f7:	00 00 00 
    11fa:	66 2e 0f 1f 84 00 00 	nopw   %cs:0x0(%rax,%rax,1)
    1201:	00 00 00 
    1204:	66 2e 0f 1f 84 00 00 	nopw   %cs:0x0(%rax,%rax,1)
    120b:	00 00 00 
    120e:	66 2e 0f 1f 84 00 00 	nopw   %cs:0x0(%rax,%rax,1)
    1215:	00 00 00 
    1218:	66 2e 0f 1f 84 00 00 	nopw   %cs:0x0(%rax,%rax,1)
    121f:	00 00 00 
    1222:	66 2e 0f 1f 84 00 00 	nopw   %cs:0x0(%rax,%rax,1)
    1229:	00 00 00 
    122c:	66 2e 0f 1f 84 00 00 	nopw   %cs:0x0(%rax,%rax,1)
    1233:	00 00 00 
    1236:	66 2e 0f 1f 84 00 00 	nopw   %cs:0x0(%rax,%rax,1)
    123d:	00 00 00 
    1240:	66 2e 0f 1f 84 00 00 	nopw   %cs:0x0(%rax,%rax,1)
    1247:	00 00 00 
    124a:	66 2e 0f 1f 84 00 00 	nopw   %cs:0x0(%rax,%rax,1)
    1251:	00 00 00 
    1254:	66 2e 0f 1f 84 00 00 	nopw   %cs:0x0(%rax,%rax,1)
    125b:	00 00 00 
    125e:	66 2e 0f 1f 84 00 00 	nopw   %cs:0x0(%rax,%rax,1)
    1265:	00 00 00 
    1268:	66 2e 0f 1f 84 00 00 	nopw   %cs:0x0(%rax,%rax,1)
    126f:	00 00 00 
    1272:	66 2e 0f 1f 84 00 00 	nopw   %cs:0x0(%rax,%rax,1)
    1279:	00 00 00 
    127c:	66 2e 0f 1f 84 00 00 	nopw   %cs:0x0(%rax,%rax,1)
    1283:	00 00 00 
    1286:	66 2e 0f 1f 84 00 00 	nopw   %cs:0x0(%rax,%rax,1)
    128d:	00 00 00 
    1290:	66 2e 0f 1f 84 00 00 	nopw   %cs:0x0(%rax,%rax,1)
    1297:	00 00 00 
    129a:	66 2e 0f 1f 84 00 00 	nopw   %cs:0x0(%rax,%rax,1)
    12a1:	00 00 00 
    12a4:	66 2e 0f 1f 84 00 00 	nopw   %cs:0x0(%rax,%rax,1)
    12ab:	00 00 00 
    12ae:	66 2e 0f 1f 84 00 00 	nopw   %cs:0x0(%rax,%rax,1)
    12b5:	00 00 00 
    12b8:	66 2e 0f 1f 84 00 00 	nopw   %cs:0x0(%rax,%rax,1)
    12bf:	00 00 00 
    12c2:	66 2e 0f 1f 84 00 00 	nopw   %cs:0x0(%rax,%rax,1)
    12c9:	00 00 00 
    12cc:	66 2e 0f 1f 84 00 00 	nopw   %cs:0x0(%rax,%rax,1)
    12d3:	00 00 00 
    12d6:	66 2e 0f 1f 84 00 00 	nopw   %cs:0x0(%rax,%rax,1)
    12dd:	00 00 00 
    12e0:	66 2e 0f 1f 84 00 00 	nopw   %cs:0x0(%rax,%rax,1)
    12e7:	00 00 00 
    12ea:	66 2e 0f 1f 84 00 00 	nopw   %cs:0x0(%rax,%rax,1)
    12f1:	00 00 00 
    12f4:	66 2e 0f 1f 84 00 00 	nopw   %cs:0x0(%rax,%rax,1)
    12fb:	00 00 00 
    12fe:	66 2e 0f 1f 84 00 00 	nopw   %cs:0x0(%rax,%rax,1)
    1305:	00 00 00 
    1308:	66 2e 0f 1f 84 00 00 	nopw   %cs:0x0(%rax,%rax,1)
    130f:	00 00 00 
    1312:	66 2e 0f 1f 84 00 00 	nopw   %cs:0x0(%rax,%rax,1)
    1319:	00 00 00 
    131c:	66 2e 0f 1f 84 00 00 	nopw   %cs:0x0(%rax,%rax,1)
    1323:	00 00 00 
    1326:	66 2e 0f 1f 84 00 00 	nopw   %cs:0x0(%rax,%rax,1)
    132d:	00 00 00 
    1330:	66 2e 0f 1f 84 00 00 	nopw   %cs:0x0(%rax,%rax,1)
    1337:	00 00 00 
    133a:	66 2e 0f 1f 84 00 00 	nopw   %cs:0x0(%rax,%rax,1)
    1341:	00 00 00 
    1344:	66 2e 0f 1f 84 00 00 	nopw   %cs:0x0(%rax,%rax,1)
    134b:	00 00 00 
    134e:	66 2e 0f 1f 84 00 00 	nopw   %cs:0x0(%rax,%rax,1)
    1355:	00 00 00 
    1358:	66 2e 0f 1f 84 00 00 	nopw   %cs:0x0(%rax,%rax,1)
    135f:	00 00 00 
    1362:	66 2e 0f 1f 84 00 00 	nopw   %cs:0x0(%rax,%rax,1)
    1369:	00 00 00 
    136c:	66 2e 0f 1f 84 00 00 	nopw   %cs:0x0(%rax,%rax,1)
    1373:	00 00 00 
    1376:	66 2e 0f 1f 84 00 00 	nopw   %cs:0x0(%rax,%rax,1)
    137d:	00 00 00 
    1380:	66 2e 0f 1f 84 00 00 	nopw   %cs:0x0(%rax,%rax,1)
    1387:	00 00 00 
    138a:	66 2e 0f 1f 84 00 00 	nopw   %cs:0x0(%rax,%rax,1)
    1391:	00 00 00 
    1394:	66 2e 0f 1f 84 00 00 	nopw   %cs:0x0(%rax,%rax,1)
    139b:	00 00 00 
    139e:	66 2e 0f 1f 84 00 00 	nopw   %cs:0x0(%rax,%rax,1)
    13a5:	00 00 00 
    13a8:	66 2e 0f 1f 84 00 00 	nopw   %cs:0x0(%rax,%rax,1)
    13af:	00 00 00 
    13b2:	66 2e 0f 1f 84 00 00 	nopw   %cs:0x0(%rax,%rax,1)
    13b9:	00 00 00 
    13bc:	66 2e 0f 1f 84 00 00 	nopw   %cs:0x0(%rax,%rax,1)
    13c3:	00 00 00 
    13c6:	66 2e 0f 1f 84 00 00 	nopw   %cs:0x0(%rax,%rax,1)
    13cd:	00 00 00 
    13d0:	66 2e 0f 1f 84 00 00 	nopw   %cs:0x0(%rax,%rax,1)
    13d7:	00 00 00 
    13da:	66 2e 0f 1f 84 00 00 	nopw   %cs:0x0(%rax,%rax,1)
    13e1:	00 00 00 
    13e4:	66 2e 0f 1f 84 00 00 	nopw   %cs:0x0(%rax,%rax,1)
    13eb:	00 00 00 
    13ee:	66 2e 0f 1f 84 00 00 	nopw   %cs:0x0(%rax,%rax,1)
    13f5:	00 00 00 
    13f8:	66 2e 0f 1f 84 00 00 	nopw   %cs:0x0(%rax,%rax,1)
    13ff:	00 00 00 
    1402:	66 2e 0f 1f 84 00 00 	nopw   %cs:0x0(%rax,%rax,1)
    1409:	00 00 00 
    140c:	66 2e 0f 1f 84 00 00 	nopw   %cs:0x0(%rax,%rax,1)
    1413:	00 00 00 
    1416:	66 2e 0f 1f 84 00 00 	nopw   %cs:0x0(%rax,%rax,1)
    141d:	00 00 00 
    1420:	66 2e 0f 1f 84 00 00 	nopw   %cs:0x0(%rax,%rax,1)
    1427:	00 00 00 
    142a:	66 2e 0f 1f 84 00 00 	nopw   %cs:0x0(%rax,%rax,1)
    1431:	00 00 00 
    1434:	66 2e 0f 1f 84 00 00 	nopw   %cs:0x0(%rax,%rax,1)
    143b:	00 00 00 
    143e:	66 2e 0f 1f 84 00 00 	nopw   %cs:0x0(%rax,%rax,1)
    1445:	00 00 00 
    1448:	66 2e 0f 1f 84 00 00 	nopw   %cs:0x0(%rax,%rax,1)
    144f:	00 00 00 
    1452:	66 2e 0f 1f 84 00 00 	nopw   %cs:0x0(%rax,%rax,1)
    1459:	00 00 00 
    145c:	66 2e 0f 1f 84 00 00 	nopw   %cs:0x0(%rax,%rax,1)
    1463:	00 00 00 
    1466:	66 2e 0f 1f 84 00 00 	nopw   %cs:0x0(%rax,%rax,1)
    146d:	00 00 00 
    1470:	66 2e 0f 1f 84 00 00 	nopw   %cs:0x0(%rax,%rax,1)
    1477:	00 00 00 
    147a:	66 2e 0f 1f 84 00 00 	nopw   %cs:0x0(%rax,%rax,1)
    1481:	00 00 00 
    1484:	66 2e 0f 1f 84 00 00 	nopw   %cs:0x0(%rax,%rax,1)
    148b:	00 00 00 
    148e:	66 2e 0f 1f 84 00 00 	nopw   %cs:0x0(%rax,%rax,1)
    1495:	00 00 00 
    1498:	66 2e 0f 1f 84 00 00 	nopw   %cs:0x0(%rax,%rax,1)
    149f:	00 00 00 
    14a2:	66 2e 0f 1f 84 00 00 	nopw   %cs:0x0(%rax,%rax,1)
    14a9:	00 00 00 
    14ac:	66 2e 0f 1f 84 00 00 	nopw   %cs:0x0(%rax,%rax,1)
    14b3:	00 00 00 
    14b6:	66 2e 0f 1f 84 00 00 	nopw   %cs:0x0(%rax,%rax,1)
    14bd:	00 00 00 
    14c0:	66 2e 0f 1f 84 00 00 	nopw   %cs:0x0(%rax,%rax,1)
    14c7:	00 00 00 
    14ca:	66 2e 0f 1f 84 00 00 	nopw   %cs:0x0(%rax,%rax,1)
    14d1:	00 00 00 
    14d4:	66 2e 0f 1f 84 00 00 	nopw   %cs:0x0(%rax,%rax,1)
    14db:	00 00 00 
    14de:	66 2e 0f 1f 84 00 00 	nopw   %cs:0x0(%rax,%rax,1)
    14e5:	00 00 00 
    14e8:	66 2e 0f 1f 84 00 00 	nopw   %cs:0x0(%rax,%rax,1)
    14ef:	00 00 00 
    14f2:	66 2e 0f 1f 84 00 00 	nopw   %cs:0x0(%rax,%rax,1)
    14f9:	00 00 00 
    14fc:	66 2e 0f 1f 84 00 00 	nopw   %cs:0x0(%rax,%rax,1)
    1503:	00 00 00 
    1506:	66 2e 0f 1f 84 00 00 	nopw   %cs:0x0(%rax,%rax,1)
    150d:	00 00 00 
    1510:	66 2e 0f 1f 84 00 00 	nopw   %cs:0x0(%rax,%rax,1)
    1517:	00 00 00 
    151a:	66 2e 0f 1f 84 00 00 	nopw   %cs:0x0(%rax,%rax,1)
    1521:	00 00 00 
    1524:	66 2e 0f 1f 84 00 00 	nopw   %cs:0x0(%rax,%rax,1)
    152b:	00 00 00 
    152e:	66 2e 0f 1f 84 00 00 	nopw   %cs:0x0(%rax,%rax,1)
    1535:	00 00 00 
    1538:	66 2e 0f 1f 84 00 00 	nopw   %cs:0x0(%rax,%rax,1)
    153f:	00 00 00 
    1542:	66 2e 0f 1f 84 00 00 	nopw   %cs:0x0(%rax,%rax,1)
    1549:	00 00 00 
    154c:	66 2e 0f 1f 84 00 00 	nopw   %cs:0x0(%rax,%rax,1)
    1553:	00 00 00 
    1556:	66 2e 0f 1f 84 00 00 	nopw   %cs:0x0(%rax,%rax,1)
    155d:	00 00 00 
    1560:	66 2e 0f 1f 84 00 00 	nopw   %cs:0x0(%rax,%rax,1)
    1567:	00 00 00 
    156a:	66 2e 0f 1f 84 00 00 	nopw   %cs:0x0(%rax,%rax,1)
    1571:	00 00 00 
    1574:	66 2e 0f 1f 84 00 00 	nopw   %cs:0x0(%rax,%rax,1)
    157b:	00 00 00 
    157e:	66 2e 0f 1f 84 00 00 	nopw   %cs:0x0(%rax,%rax,1)
    1585:	00 00 00 
    1588:	66 2e 0f 1f 84 00 00 	nopw   %cs:0x0(%rax,%rax,1)
    158f:	00 00 00 
    1592:	66 2e 0f 1f 84 00 00 	nopw   %cs:0x0(%rax,%rax,1)
    1599:	00 00 00 
    159c:	66 2e 0f 1f 84 00 00 	nopw   %cs:0x0(%rax,%rax,1)
    15a3:	00 00 00 
    15a6:	66 2e 0f 1f 84 00 00 	nopw   %cs:0x0(%rax,%rax,1)
    15ad:	00 00 00 
    15b0:	66 2e 0f 1f 84 00 00 	nopw   %cs:0x0(%rax,%rax,1)
    15b7:	00 00 00 
    15ba:	66 2e 0f 1f 84 00 00 	nopw   %cs:0x0(%rax,%rax,1)
    15c1:	00 00 00 
    15c4:	66 2e 0f 1f 84 00 00 	nopw   %cs:0x0(%rax,%rax,1)
    15cb:	00 00 00 
    15ce:	66 2e 0f 1f 84 00 00 	nopw   %cs:0x0(%rax,%rax,1)
    15d5:	00 00 00 
    15d8:	66 2e 0f 1f 84 00 00 	nopw   %cs:0x0(%rax,%rax,1)
    15df:	00 00 00 
    15e2:	66 2e 0f 1f 84 00 00 	nopw   %cs:0x0(%rax,%rax,1)
    15e9:	00 00 00 
    15ec:	66 2e 0f 1f 84 00 00 	nopw   %cs:0x0(%rax,%rax,1)
    15f3:	00 00 00 
    15f6:	66 2e 0f 1f 84 00 00 	nopw   %cs:0x0(%rax,%rax,1)
    15fd:	00 00 00 
    1600:	66 2e 0f 1f 84 00 00 	nopw   %cs:0x0(%rax,%rax,1)
    1607:	00 00 00 
    160a:	66 2e 0f 1f 84 00 00 	nopw   %cs:0x0(%rax,%rax,1)
    1611:	00 00 00 
    1614:	66 2e 0f 1f 84 00 00 	nopw   %cs:0x0(%rax,%rax,1)
    161b:	00 00 00 
    161e:	66 2e 0f 1f 84 00 00 	nopw   %cs:0x0(%rax,%rax,1)
    1625:	00 00 00 
    1628:	66 2e 0f 1f 84 00 00 	nopw   %cs:0x0(%rax,%rax,1)
    162f:	00 00 00 
    1632:	66 2e 0f 1f 84 00 00 	nopw   %cs:0x0(%rax,%rax,1)
    1639:	00 00 00 
    163c:	66 2e 0f 1f 84 00 00 	nopw   %cs:0x0(%rax,%rax,1)
    1643:	00 00 00 
    1646:	66 2e 0f 1f 84 00 00 	nopw   %cs:0x0(%rax,%rax,1)
    164d:	00 00 00 
    1650:	66 2e 0f 1f 84 00 00 	nopw   %cs:0x0(%rax,%rax,1)
    1657:	00 00 00 
    165a:	66 2e 0f 1f 84 00 00 	nopw   %cs:0x0(%rax,%rax,1)
    1661:	00 00 00 
    1664:	66 2e 0f 1f 84 00 00 	nopw   %cs:0x0(%rax,%rax,1)
    166b:	00 00 00 
    166e:	66 2e 0f 1f 84 00 00 	nopw   %cs:0x0(%rax,%rax,1)
    1675:	00 00 00 
    1678:	66 2e 0f 1f 84 00 00 	nopw   %cs:0x0(%rax,%rax,1)
    167f:	00 00 00 
    1682:	66 2e 0f 1f 84 00 00 	nopw   %cs:0x0(%rax,%rax,1)
    1689:	00 00 00 
    168c:	66 2e 0f 1f 84 00 00 	nopw   %cs:0x0(%rax,%rax,1)
    1693:	00 00 00 
    1696:	66 2e 0f 1f 84 00 00 	nopw   %cs:0x0(%rax,%rax,1)
    169d:	00 00 00 
    16a0:	66 2e 0f 1f 84 00 00 	nopw   %cs:0x0(%rax,%rax,1)
    16a7:	00 00 00 
    16aa:	66 2e 0f 1f 84 00 00 	nopw   %cs:0x0(%rax,%rax,1)
    16b1:	00 00 00 
    16b4:	66 2e 0f 1f 84 00 00 	nopw   %cs:0x0(%rax,%rax,1)
    16bb:	00 00 00 
    16be:	66 2e 0f 1f 84 00 00 	nopw   %cs:0x0(%rax,%rax,1)
    16c5:	00 00 00 
    16c8:	66 2e 0f 1f 84 00 00 	nopw   %cs:0x0(%rax,%rax,1)
    16cf:	00 00 00 
    16d2:	66 2e 0f 1f 84 00 00 	nopw   %cs:0x0(%rax,%rax,1)
    16d9:	00 00 00 
    16dc:	66 2e 0f 1f 84 00 00 	nopw   %cs:0x0(%rax,%rax,1)
    16e3:	00 00 00 
    16e6:	66 2e 0f 1f 84 00 00 	nopw   %cs:0x0(%rax,%rax,1)
    16ed:	00 00 00 
    16f0:	66 2e 0f 1f 84 00 00 	nopw   %cs:0x0(%rax,%rax,1)
    16f7:	00 00 00 
    16fa:	66 2e 0f 1f 84 00 00 	nopw   %cs:0x0(%rax,%rax,1)
    1701:	00 00 00 
    1704:	66 2e 0f 1f 84 00 00 	nopw   %cs:0x0(%rax,%rax,1)
    170b:	00 00 00 
    170e:	66 2e 0f 1f 84 00 00 	nopw   %cs:0x0(%rax,%rax,1)
    1715:	00 00 00 
    1718:	66 2e 0f 1f 84 00 00 	nopw   %cs:0x0(%rax,%rax,1)
    171f:	00 00 00 
    1722:	66 2e 0f 1f 84 00 00 	nopw   %cs:0x0(%rax,%rax,1)
    1729:	00 00 00 
    172c:	66 2e 0f 1f 84 00 00 	nopw   %cs:0x0(%rax,%rax,1)
    1733:	00 00 00 
    1736:	66 2e 0f 1f 84 00 00 	nopw   %cs:0x0(%rax,%rax,1)
    173d:	00 00 00 
    1740:	66 2e 0f 1f 84 00 00 	nopw   %cs:0x0(%rax,%rax,1)
    1747:	00 00 00 
    174a:	66 2e 0f 1f 84 00 00 	nopw   %cs:0x0(%rax,%rax,1)
    1751:	00 00 00 
    1754:	66 2e 0f 1f 84 00 00 	nopw   %cs:0x0(%rax,%rax,1)
    175b:	00 00 00 
    175e:	66 2e 0f 1f 84 00 00 	nopw   %cs:0x0(%rax,%rax,1)
    1765:	00 00 00 
    1768:	66 2e 0f 1f 84 00 00 	nopw   %cs:0x0(%rax,%rax,1)
    176f:	00 00 00 
    1772:	66 2e 0f 1f 84 00 00 	nopw   %cs:0x0(%rax,%rax,1)
    1779:	00 00 00 
    177c:	66 2e 0f 1f 84 00 00 	nopw   %cs:0x0(%rax,%rax,1)
    1783:	00 00 00 
    1786:	66 2e 0f 1f 84 00 00 	nopw   %cs:0x0(%rax,%rax,1)
    178d:	00 00 00 
    1790:	66 2e 0f 1f 84 00 00 	nopw   %cs:0x0(%rax,%rax,1)
    1797:	00 00 00 
    179a:	66 2e 0f 1f 84 00 00 	nopw   %cs:0x0(%rax,%rax,1)
    17a1:	00 00 00 
    17a4:	66 2e 0f 1f 84 00 00 	nopw   %cs:0x0(%rax,%rax,1)
    17ab:	00 00 00 
    17ae:	66 2e 0f 1f 84 00 00 	nopw   %cs:0x0(%rax,%rax,1)
    17b5:	00 00 00 
    17b8:	66 2e 0f 1f 84 00 00 	nopw   %cs:0x0(%rax,%rax,1)
    17bf:	00 00 00 
    17c2:	66 2e 0f 1f 84 00 00 	nopw   %cs:0x0(%rax,%rax,1)
    17c9:	00 00 00 
    17cc:	66 2e 0f 1f 84 00 00 	nopw   %cs:0x0(%rax,%rax,1)
    17d3:	00 00 00 
    17d6:	66 2e 0f 1f 84 00 00 	nopw   %cs:0x0(%rax,%rax,1)
    17dd:	00 00 00 
    17e0:	66 2e 0f 1f 84 00 00 	nopw   %cs:0x0(%rax,%rax,1)
    17e7:	00 00 00 
    17ea:	66 2e 0f 1f 84 00 00 	nopw   %cs:0x0(%rax,%rax,1)
    17f1:	00 00 00 
    17f4:	66 2e 0f 1f 84 00 00 	nopw   %cs:0x0(%rax,%rax,1)
    17fb:	00 00 00 
    17fe:	66 2e 0f 1f 84 00 00 	nopw   %cs:0x0(%rax,%rax,1)
    1805:	00 00 00 
    1808:	66 2e 0f 1f 84 00 00 	nopw   %cs:0x0(%rax,%rax,1)
    180f:	00 00 00 
    1812:	66 2e 0f 1f 84 00 00 	nopw   %cs:0x0(%rax,%rax,1)
    1819:	00 00 00 
    181c:	66 2e 0f 1f 84 00 00 	nopw   %cs:0x0(%rax,%rax,1)
    1823:	00 00 00 
    1826:	66 2e 0f 1f 84 00 00 	nopw   %cs:0x0(%rax,%rax,1)
    182d:	00 00 00 
    1830:	66 2e 0f 1f 84 00 00 	nopw   %cs:0x0(%rax,%rax,1)
    1837:	00 00 00 
    183a:	66 2e 0f 1f 84 00 00 	nopw   %cs:0x0(%rax,%rax,1)
    1841:	00 00 00 
    1844:	66 2e 0f 1f 84 00 00 	nopw   %cs:0x0(%rax,%rax,1)
    184b:	00 00 00 
    184e:	66 2e 0f 1f 84 00 00 	nopw   %cs:0x0(%rax,%rax,1)
    1855:	00 00 00 
    1858:	66 2e 0f 1f 84 00 00 	nopw   %cs:0x0(%rax,%rax,1)
    185f:	00 00 00 
    1862:	66 2e 0f 1f 84 00 00 	nopw   %cs:0x0(%rax,%rax,1)
    1869:	00 00 00 
    186c:	66 2e 0f 1f 84 00 00 	nopw   %cs:0x0(%rax,%rax,1)
    1873:	00 00 00 
    1876:	66 2e 0f 1f 84 00 00 	nopw   %cs:0x0(%rax,%rax,1)
    187d:	00 00 00 
    1880:	66 2e 0f 1f 84 00 00 	nopw   %cs:0x0(%rax,%rax,1)
    1887:	00 00 00 
    188a:	66 2e 0f 1f 84 00 00 	nopw   %cs:0x0(%rax,%rax,1)
    1891:	00 00 00 
    1894:	66 2e 0f 1f 84 00 00 	nopw   %cs:0x0(%rax,%rax,1)
    189b:	00 00 00 
    189e:	66 2e 0f 1f 84 00 00 	nopw   %cs:0x0(%rax,%rax,1)
    18a5:	00 00 00 
    18a8:	66 2e 0f 1f 84 00 00 	nopw   %cs:0x0(%rax,%rax,1)
    18af:	00 00 00 
    18b2:	66 2e 0f 1f 84 00 00 	nopw   %cs:0x0(%rax,%rax,1)
    18b9:	00 00 00 
    18bc:	66 2e 0f 1f 84 00 00 	nopw   %cs:0x0(%rax,%rax,1)
    18c3:	00 00 00 
    18c6:	66 2e 0f 1f 84 00 00 	nopw   %cs:0x0(%rax,%rax,1)
    18cd:	00 00 00 
    18d0:	66 2e 0f 1f 84 00 00 	nopw   %cs:0x0(%rax,%rax,1)
    18d7:	00 00 00 
    18da:	66 2e 0f 1f 84 00 00 	nopw   %cs:0x0(%rax,%rax,1)
    18e1:	00 00 00 
    18e4:	66 2e 0f 1f 84 00 00 	nopw   %cs:0x0(%rax,%rax,1)
    18eb:	00 00 00 
    18ee:	66 2e 0f 1f 84 00 00 	nopw   %cs:0x0(%rax,%rax,1)
    18f5:	00 00 00 
    18f8:	66 2e 0f 1f 84 00 00 	nopw   %cs:0x0(%rax,%rax,1)
    18ff:	00 00 00 
    1902:	66 2e 0f 1f 84 00 00 	nopw   %cs:0x0(%rax,%rax,1)
    1909:	00 00 00 
    190c:	66 2e 0f 1f 84 00 00 	nopw   %cs:0x0(%rax,%rax,1)
    1913:	00 00 00 
    1916:	66 2e 0f 1f 84 00 00 	nopw   %cs:0x0(%rax,%rax,1)
    191d:	00 00 00 
    1920:	66 2e 0f 1f 84 00 00 	nopw   %cs:0x0(%rax,%rax,1)
    1927:	00 00 00 
    192a:	66 2e 0f 1f 84 00 00 	nopw   %cs:0x0(%rax,%rax,1)
    1931:	00 00 00 
    1934:	66 2e 0f 1f 84 00 00 	nopw   %cs:0x0(%rax,%rax,1)
    193b:	00 00 00 
    193e:	66 2e 0f 1f 84 00 00 	nopw   %cs:0x0(%rax,%rax,1)
    1945:	00 00 00 
    1948:	66 2e 0f 1f 84 00 00 	nopw   %cs:0x0(%rax,%rax,1)
    194f:	00 00 00 
    1952:	66 2e 0f 1f 84 00 00 	nopw   %cs:0x0(%rax,%rax,1)
    1959:	00 00 00 
    195c:	66 2e 0f 1f 84 00 00 	nopw   %cs:0x0(%rax,%rax,1)
    1963:	00 00 00 
    1966:	66 2e 0f 1f 84 00 00 	nopw   %cs:0x0(%rax,%rax,1)
    196d:	00 00 00 
    1970:	66 2e 0f 1f 84 00 00 	nopw   %cs:0x0(%rax,%rax,1)
    1977:	00 00 00 
    197a:	66 2e 0f 1f 84 00 00 	nopw   %cs:0x0(%rax,%rax,1)
    1981:	00 00 00 
    1984:	66 2e 0f 1f 84 00 00 	nopw   %cs:0x0(%rax,%rax,1)
    198b:	00 00 00 
    198e:	66 2e 0f 1f 84 00 00 	nopw   %cs:0x0(%rax,%rax,1)
    1995:	00 00 00 
    1998:	66 2e 0f 1f 84 00 00 	nopw   %cs:0x0(%rax,%rax,1)
    199f:	00 00 00 
    19a2:	66 2e 0f 1f 84 00 00 	nopw   %cs:0x0(%rax,%rax,1)
    19a9:	00 00 00 
    19ac:	66 2e 0f 1f 84 00 00 	nopw   %cs:0x0(%rax,%rax,1)
    19b3:	00 00 00 
    19b6:	66 2e 0f 1f 84 00 00 	nopw   %cs:0x0(%rax,%rax,1)
    19bd:	00 00 00 
    19c0:	66 2e 0f 1f 84 00 00 	nopw   %cs:0x0(%rax,%rax,1)
    19c7:	00 00 00 
    19ca:	66 2e 0f 1f 84 00 00 	nopw   %cs:0x0(%rax,%rax,1)
    19d1:	00 00 00 
    19d4:	66 2e 0f 1f 84 00 00 	nopw   %cs:0x0(%rax,%rax,1)
    19db:	00 00 00 
    19de:	66 2e 0f 1f 84 00 00 	nopw   %cs:0x0(%rax,%rax,1)
    19e5:	00 00 00 
    19e8:	66 2e 0f 1f 84 00 00 	nopw   %cs:0x0(%rax,%rax,1)
    19ef:	00 00 00 
    19f2:	66 2e 0f 1f 84 00 00 	nopw   %cs:0x0(%rax,%rax,1)
    19f9:	00 00 00 
    19fc:	66 2e 0f 1f 84 00 00 	nopw   %cs:0x0(%rax,%rax,1)
    1a03:	00 00 00 
    1a06:	66 2e 0f 1f 84 00 00 	nopw   %cs:0x0(%rax,%rax,1)
    1a0d:	00 00 00 
    1a10:	66 2e 0f 1f 84 00 00 	nopw   %cs:0x0(%rax,%rax,1)
    1a17:	00 00 00 
    1a1a:	66 2e 0f 1f 84 00 00 	nopw   %cs:0x0(%rax,%rax,1)
    1a21:	00 00 00 
    1a24:	66 2e 0f 1f 84 00 00 	nopw   %cs:0x0(%rax,%rax,1)
    1a2b:	00 00 00 
    1a2e:	66 2e 0f 1f 84 00 00 	nopw   %cs:0x0(%rax,%rax,1)
    1a35:	00 00 00 
    1a38:	66 2e 0f 1f 84 00 00 	nopw   %cs:0x0(%rax,%rax,1)
    1a3f:	00 00 00 
    1a42:	66 2e 0f 1f 84 00 00 	nopw   %cs:0x0(%rax,%rax,1)
    1a49:	00 00 00 
    1a4c:	66 2e 0f 1f 84 00 00 	nopw   %cs:0x0(%rax,%rax,1)
    1a53:	00 00 00 
    1a56:	66 2e 0f 1f 84 00 00 	nopw   %cs:0x0(%rax,%rax,1)
    1a5d:	00 00 00 
    1a60:	66 2e 0f 1f 84 00 00 	nopw   %cs:0x0(%rax,%rax,1)
    1a67:	00 00 00 
    1a6a:	66 2e 0f 1f 84 00 00 	nopw   %cs:0x0(%rax,%rax,1)
    1a71:	00 00 00 
    1a74:	66 2e 0f 1f 84 00 00 	nopw   %cs:0x0(%rax,%rax,1)
    1a7b:	00 00 00 
    1a7e:	66 2e 0f 1f 84 00 00 	nopw   %cs:0x0(%rax,%rax,1)
    1a85:	00 00 00 
    1a88:	66 2e 0f 1f 84 00 00 	nopw   %cs:0x0(%rax,%rax,1)
    1a8f:	00 00 00 
    1a92:	66 2e 0f 1f 84 00 00 	nopw   %cs:0x0(%rax,%rax,1)
    1a99:	00 00 00 
    1a9c:	66 2e 0f 1f 84 00 00 	nopw   %cs:0x0(%rax,%rax,1)
    1aa3:	00 00 00 
    1aa6:	66 2e 0f 1f 84 00 00 	nopw   %cs:0x0(%rax,%rax,1)
    1aad:	00 00 00 
    1ab0:	66 2e 0f 1f 84 00 00 	nopw   %cs:0x0(%rax,%rax,1)
    1ab7:	00 00 00 
    1aba:	66 2e 0f 1f 84 00 00 	nopw   %cs:0x0(%rax,%rax,1)
    1ac1:	00 00 00 
    1ac4:	66 2e 0f 1f 84 00 00 	nopw   %cs:0x0(%rax,%rax,1)
    1acb:	00 00 00 
    1ace:	66 2e 0f 1f 84 00 00 	nopw   %cs:0x0(%rax,%rax,1)
    1ad5:	00 00 00 
    1ad8:	66 2e 0f 1f 84 00 00 	nopw   %cs:0x0(%rax,%rax,1)
    1adf:	00 00 00 
    1ae2:	66 2e 0f 1f 84 00 00 	nopw   %cs:0x0(%rax,%rax,1)
    1ae9:	00 00 00 
    1aec:	66 2e 0f 1f 84 00 00 	nopw   %cs:0x0(%rax,%rax,1)
    1af3:	00 00 00 
    1af6:	66 2e 0f 1f 84 00 00 	nopw   %cs:0x0(%rax,%rax,1)
    1afd:	00 00 00 
    1b00:	66 2e 0f 1f 84 00 00 	nopw   %cs:0x0(%rax,%rax,1)
    1b07:	00 00 00 
    1b0a:	66 2e 0f 1f 84 00 00 	nopw   %cs:0x0(%rax,%rax,1)
    1b11:	00 00 00 
    1b14:	66 2e 0f 1f 84 00 00 	nopw   %cs:0x0(%rax,%rax,1)
    1b1b:	00 00 00 
    1b1e:	66 2e 0f 1f 84 00 00 	nopw   %cs:0x0(%rax,%rax,1)
    1b25:	00 00 00 
    1b28:	66 2e 0f 1f 84 00 00 	nopw   %cs:0x0(%rax,%rax,1)
    1b2f:	00 00 00 
    1b32:	66 2e 0f 1f 84 00 00 	nopw   %cs:0x0(%rax,%rax,1)
    1b39:	00 00 00 
    1b3c:	66 2e 0f 1f 84 00 00 	nopw   %cs:0x0(%rax,%rax,1)
    1b43:	00 00 00 
    1b46:	66 2e 0f 1f 84 00 00 	nopw   %cs:0x0(%rax,%rax,1)
    1b4d:	00 00 00 
    1b50:	66 2e 0f 1f 84 00 00 	nopw   %cs:0x0(%rax,%rax,1)
    1b57:	00 00 00 
    1b5a:	66 2e 0f 1f 84 00 00 	nopw   %cs:0x0(%rax,%rax,1)
    1b61:	00 00 00 
    1b64:	66 2e 0f 1f 84 00 00 	nopw   %cs:0x0(%rax,%rax,1)
    1b6b:	00 00 00 
    1b6e:	66 2e 0f 1f 84 00 00 	nopw   %cs:0x0(%rax,%rax,1)
    1b75:	00 00 00 
    1b78:	66 2e 0f 1f 84 00 00 	nopw   %cs:0x0(%rax,%rax,1)
    1b7f:	00 00 00 
    1b82:	66 2e 0f 1f 84 00 00 	nopw   %cs:0x0(%rax,%rax,1)
    1b89:	00 00 00 
    1b8c:	66 2e 0f 1f 84 00 00 	nopw   %cs:0x0(%rax,%rax,1)
    1b93:	00 00 00 
    1b96:	66 2e 0f 1f 84 00 00 	nopw   %cs:0x0(%rax,%rax,1)
    1b9d:	00 00 00 
    1ba0:	66 2e 0f 1f 84 00 00 	nopw   %cs:0x0(%rax,%rax,1)
    1ba7:	00 00 00 
    1baa:	66 2e 0f 1f 84 00 00 	nopw   %cs:0x0(%rax,%rax,1)
    1bb1:	00 00 00 
    1bb4:	66 2e 0f 1f 84 00 00 	nopw   %cs:0x0(%rax,%rax,1)
    1bbb:	00 00 00 
    1bbe:	66 2e 0f 1f 84 00 00 	nopw   %cs:0x0(%rax,%rax,1)
    1bc5:	00 00 00 
    1bc8:	66 2e 0f 1f 84 00 00 	nopw   %cs:0x0(%rax,%rax,1)
    1bcf:	00 00 00 
    1bd2:	66 2e 0f 1f 84 00 00 	nopw   %cs:0x0(%rax,%rax,1)
    1bd9:	00 00 00 
    1bdc:	66 2e 0f 1f 84 00 00 	nopw   %cs:0x0(%rax,%rax,1)
    1be3:	00 00 00 
    1be6:	66 2e 0f 1f 84 00 00 	nopw   %cs:0x0(%rax,%rax,1)
    1bed:	00 00 00 
    1bf0:	66 2e 0f 1f 84 00 00 	nopw   %cs:0x0(%rax,%rax,1)
    1bf7:	00 00 00 
    1bfa:	66 2e 0f 1f 84 00 00 	nopw   %cs:0x0(%rax,%rax,1)
    1c01:	00 00 00 
    1c04:	66 2e 0f 1f 84 00 00 	nopw   %cs:0x0(%rax,%rax,1)
    1c0b:	00 00 00 
    1c0e:	66 2e 0f 1f 84 00 00 	nopw   %cs:0x0(%rax,%rax,1)
    1c15:	00 00 00 
    1c18:	66 2e 0f 1f 84 00 00 	nopw   %cs:0x0(%rax,%rax,1)
    1c1f:	00 00 00 
    1c22:	66 2e 0f 1f 84 00 00 	nopw   %cs:0x0(%rax,%rax,1)
    1c29:	00 00 00 
    1c2c:	66 2e 0f 1f 84 00 00 	nopw   %cs:0x0(%rax,%rax,1)
    1c33:	00 00 00 
    1c36:	66 2e 0f 1f 84 00 00 	nopw   %cs:0x0(%rax,%rax,1)
    1c3d:	00 00 00 
    1c40:	66 2e 0f 1f 84 00 00 	nopw   %cs:0x0(%rax,%rax,1)
    1c47:	00 00 00 
    1c4a:	66 2e 0f 1f 84 00 00 	nopw   %cs:0x0(%rax,%rax,1)
    1c51:	00 00 00 
    1c54:	66 2e 0f 1f 84 00 00 	nopw   %cs:0x0(%rax,%rax,1)
    1c5b:	00 00 00 
    1c5e:	66 2e 0f 1f 84 00 00 	nopw   %cs:0x0(%rax,%rax,1)
    1c65:	00 00 00 
    1c68:	66 2e 0f 1f 84 00 00 	nopw   %cs:0x0(%rax,%rax,1)
    1c6f:	00 00 00 
    1c72:	66 2e 0f 1f 84 00 00 	nopw   %cs:0x0(%rax,%rax,1)
    1c79:	00 00 00 
    1c7c:	66 2e 0f 1f 84 00 00 	nopw   %cs:0x0(%rax,%rax,1)
    1c83:	00 00 00 
    1c86:	66 2e 0f 1f 84 00 00 	nopw   %cs:0x0(%rax,%rax,1)
    1c8d:	00 00 00 
    1c90:	66 2e 0f 1f 84 00 00 	nopw   %cs:0x0(%rax,%rax,1)
    1c97:	00 00 00 
    1c9a:	66 2e 0f 1f 84 00 00 	nopw   %cs:0x0(%rax,%rax,1)
    1ca1:	00 00 00 
    1ca4:	66 2e 0f 1f 84 00 00 	nopw   %cs:0x0(%rax,%rax,1)
    1cab:	00 00 00 
    1cae:	66 2e 0f 1f 84 00 00 	nopw   %cs:0x0(%rax,%rax,1)
    1cb5:	00 00 00 
    1cb8:	66 2e 0f 1f 84 00 00 	nopw   %cs:0x0(%rax,%rax,1)
    1cbf:	00 00 00 
    1cc2:	66 2e 0f 1f 84 00 00 	nopw   %cs:0x0(%rax,%rax,1)
    1cc9:	00 00 00 
    1ccc:	66 2e 0f 1f 84 00 00 	nopw   %cs:0x0(%rax,%rax,1)
    1cd3:	00 00 00 
    1cd6:	66 2e 0f 1f 84 00 00 	nopw   %cs:0x0(%rax,%rax,1)
    1cdd:	00 00 00 
    1ce0:	66 2e 0f 1f 84 00 00 	nopw   %cs:0x0(%rax,%rax,1)
    1ce7:	00 00 00 
    1cea:	66 2e 0f 1f 84 00 00 	nopw   %cs:0x0(%rax,%rax,1)
    1cf1:	00 00 00 
    1cf4:	66 2e 0f 1f 84 00 00 	nopw   %cs:0x0(%rax,%rax,1)
    1cfb:	00 00 00 
    1cfe:	66 2e 0f 1f 84 00 00 	nopw   %cs:0x0(%rax,%rax,1)
    1d05:	00 00 00 
    1d08:	66 2e 0f 1f 84 00 00 	nopw   %cs:0x0(%rax,%rax,1)
    1d0f:	00 00 00 
    1d12:	66 2e 0f 1f 84 00 00 	nopw   %cs:0x0(%rax,%rax,1)
    1d19:	00 00 00 
    1d1c:	66 2e 0f 1f 84 00 00 	nopw   %cs:0x0(%rax,%rax,1)
    1d23:	00 00 00 
    1d26:	66 2e 0f 1f 84 00 00 	nopw   %cs:0x0(%rax,%rax,1)
    1d2d:	00 00 00 
    1d30:	66 2e 0f 1f 84 00 00 	nopw   %cs:0x0(%rax,%rax,1)
    1d37:	00 00 00 
    1d3a:	66 2e 0f 1f 84 00 00 	nopw   %cs:0x0(%rax,%rax,1)
    1d41:	00 00 00 
    1d44:	66 2e 0f 1f 84 00 00 	nopw   %cs:0x0(%rax,%rax,1)
    1d4b:	00 00 00 
    1d4e:	66 2e 0f 1f 84 00 00 	nopw   %cs:0x0(%rax,%rax,1)
    1d55:	00 00 00 
    1d58:	66 2e 0f 1f 84 00 00 	nopw   %cs:0x0(%rax,%rax,1)
    1d5f:	00 00 00 
    1d62:	66 2e 0f 1f 84 00 00 	nopw   %cs:0x0(%rax,%rax,1)
    1d69:	00 00 00 
    1d6c:	66 2e 0f 1f 84 00 00 	nopw   %cs:0x0(%rax,%rax,1)
    1d73:	00 00 00 
    1d76:	66 2e 0f 1f 84 00 00 	nopw   %cs:0x0(%rax,%rax,1)
    1d7d:	00 00 00 
    1d80:	66 2e 0f 1f 84 00 00 	nopw   %cs:0x0(%rax,%rax,1)
    1d87:	00 00 00 
    1d8a:	66 2e 0f 1f 84 00 00 	nopw   %cs:0x0(%rax,%rax,1)
    1d91:	00 00 00 
    1d94:	66 2e 0f 1f 84 00 00 	nopw   %cs:0x0(%rax,%rax,1)
    1d9b:	00 00 00 
    1d9e:	66 2e 0f 1f 84 00 00 	nopw   %cs:0x0(%rax,%rax,1)
    1da5:	00 00 00 
    1da8:	66 2e 0f 1f 84 00 00 	nopw   %cs:0x0(%rax,%rax,1)
    1daf:	00 00 00 
    1db2:	66 2e 0f 1f 84 00 00 	nopw   %cs:0x0(%rax,%rax,1)
    1db9:	00 00 00 
    1dbc:	66 2e 0f 1f 84 00 00 	nopw   %cs:0x0(%rax,%rax,1)
    1dc3:	00 00 00 
    1dc6:	66 2e 0f 1f 84 00 00 	nopw   %cs:0x0(%rax,%rax,1)
    1dcd:	00 00 00 
    1dd0:	66 2e 0f 1f 84 00 00 	nopw   %cs:0x0(%rax,%rax,1)
    1dd7:	00 00 00 
    1dda:	66 2e 0f 1f 84 00 00 	nopw   %cs:0x0(%rax,%rax,1)
    1de1:	00 00 00 
    1de4:	66 2e 0f 1f 84 00 00 	nopw   %cs:0x0(%rax,%rax,1)
    1deb:	00 00 00 
    1dee:	66 2e 0f 1f 84 00 00 	nopw   %cs:0x0(%rax,%rax,1)
    1df5:	00 00 00 
    1df8:	66 2e 0f 1f 84 00 00 	nopw   %cs:0x0(%rax,%rax,1)
    1dff:	00 00 00 
    1e02:	66 2e 0f 1f 84 00 00 	nopw   %cs:0x0(%rax,%rax,1)
    1e09:	00 00 00 
    1e0c:	66 2e 0f 1f 84 00 00 	nopw   %cs:0x0(%rax,%rax,1)
    1e13:	00 00 00 
    1e16:	66 2e 0f 1f 84 00 00 	nopw   %cs:0x0(%rax,%rax,1)
    1e1d:	00 00 00 
    1e20:	66 2e 0f 1f 84 00 00 	nopw   %cs:0x0(%rax,%rax,1)
    1e27:	00 00 00 
    1e2a:	66 2e 0f 1f 84 00 00 	nopw   %cs:0x0(%rax,%rax,1)
    1e31:	00 00 00 
    1e34:	66 2e 0f 1f 84 00 00 	nopw   %cs:0x0(%rax,%rax,1)
    1e3b:	00 00 00 
    1e3e:	66 2e 0f 1f 84 00 00 	nopw   %cs:0x0(%rax,%rax,1)
    1e45:	00 00 00 
    1e48:	66 2e 0f 1f 84 00 00 	nopw   %cs:0x0(%rax,%rax,1)
    1e4f:	00 00 00 
    1e52:	66 2e 0f 1f 84 00 00 	nopw   %cs:0x0(%rax,%rax,1)
    1e59:	00 00 00 
    1e5c:	66 2e 0f 1f 84 00 00 	nopw   %cs:0x0(%rax,%rax,1)
    1e63:	00 00 00 
    1e66:	66 2e 0f 1f 84 00 00 	nopw   %cs:0x0(%rax,%rax,1)
    1e6d:	00 00 00 
    1e70:	66 2e 0f 1f 84 00 00 	nopw   %cs:0x0(%rax,%rax,1)
    1e77:	00 00 00 
    1e7a:	66 2e 0f 1f 84 00 00 	nopw   %cs:0x0(%rax,%rax,1)
    1e81:	00 00 00 
    1e84:	66 2e 0f 1f 84 00 00 	nopw   %cs:0x0(%rax,%rax,1)
    1e8b:	00 00 00 
    1e8e:	66 2e 0f 1f 84 00 00 	nopw   %cs:0x0(%rax,%rax,1)
    1e95:	00 00 00 
    1e98:	66 2e 0f 1f 84 00 00 	nopw   %cs:0x0(%rax,%rax,1)
    1e9f:	00 00 00 
    1ea2:	66 2e 0f 1f 84 00 00 	nopw   %cs:0x0(%rax,%rax,1)
    1ea9:	00 00 00 
    1eac:	66 2e 0f 1f 84 00 00 	nopw   %cs:0x0(%rax,%rax,1)
    1eb3:	00 00 00 
    1eb6:	66 2e 0f 1f 84 00 00 	nopw   %cs:0x0(%rax,%rax,1)
    1ebd:	00 00 00 
    1ec0:	66 2e 0f 1f 84 00 00 	nopw   %cs:0x0(%rax,%rax,1)
    1ec7:	00 00 00 
    1eca:	66 2e 0f 1f 84 00 00 	nopw   %cs:0x0(%rax,%rax,1)
    1ed1:	00 00 00 
    1ed4:	66 2e 0f 1f 84 00 00 	nopw   %cs:0x0(%rax,%rax,1)
    1edb:	00 00 00 
    1ede:	66 2e 0f 1f 84 00 00 	nopw   %cs:0x0(%rax,%rax,1)
    1ee5:	00 00 00 
    1ee8:	66 2e 0f 1f 84 00 00 	nopw   %cs:0x0(%rax,%rax,1)
    1eef:	00 00 00 
    1ef2:	66 2e 0f 1f 84 00 00 	nopw   %cs:0x0(%rax,%rax,1)
    1ef9:	00 00 00 
    1efc:	66 2e 0f 1f 84 00 00 	nopw   %cs:0x0(%rax,%rax,1)
    1f03:	00 00 00 
    1f06:	66 2e 0f 1f 84 00 00 	nopw   %cs:0x0(%rax,%rax,1)
    1f0d:	00 00 00 
    1f10:	66 2e 0f 1f 84 00 00 	nopw   %cs:0x0(%rax,%rax,1)
    1f17:	00 00 00 
    1f1a:	66 2e 0f 1f 84 00 00 	nopw   %cs:0x0(%rax,%rax,1)
    1f21:	00 00 00 
    1f24:	66 2e 0f 1f 84 00 00 	nopw   %cs:0x0(%rax,%rax,1)
    1f2b:	00 00 00 
    1f2e:	66 2e 0f 1f 84 00 00 	nopw   %cs:0x0(%rax,%rax,1)
    1f35:	00 00 00 
    1f38:	66 2e 0f 1f 84 00 00 	nopw   %cs:0x0(%rax,%rax,1)
    1f3f:	00 00 00 
    1f42:	66 2e 0f 1f 84 00 00 	nopw   %cs:0x0(%rax,%rax,1)
    1f49:	00 00 00 
    1f4c:	66 2e 0f 1f 84 00 00 	nopw   %cs:0x0(%rax,%rax,1)
    1f53:	00 00 00 
    1f56:	66 2e 0f 1f 84 00 00 	nopw   %cs:0x0(%rax,%rax,1)
    1f5d:	00 00 00 
    1f60:	66 2e 0f 1f 84 00 00 	nopw   %cs:0x0(%rax,%rax,1)
    1f67:	00 00 00 
    1f6a:	66 2e 0f 1f 84 00 00 	nopw   %cs:0x0(%rax,%rax,1)
    1f71:	00 00 00 
    1f74:	66 2e 0f 1f 84 00 00 	nopw   %cs:0x0(%rax,%rax,1)
    1f7b:	00 00 00 
    1f7e:	66 2e 0f 1f 84 00 00 	nopw   %cs:0x0(%rax,%rax,1)
    1f85:	00 00 00 
    1f88:	66 2e 0f 1f 84 00 00 	nopw   %cs:0x0(%rax,%rax,1)
    1f8f:	00 00 00 
    1f92:	66 2e 0f 1f 84 00 00 	nopw   %cs:0x0(%rax,%rax,1)
    1f99:	00 00 00 
    1f9c:	66 2e 0f 1f 84 00 00 	nopw   %cs:0x0(%rax,%rax,1)
    1fa3:	00 00 00 
    1fa6:	66 2e 0f 1f 84 00 00 	nopw   %cs:0x0(%rax,%rax,1)
    1fad:	00 00 00 
    1fb0:	66 2e 0f 1f 84 00 00 	nopw   %cs:0x0(%rax,%rax,1)
    1fb7:	00 00 00 
    1fba:	66 2e 0f 1f 84 00 00 	nopw   %cs:0x0(%rax,%rax,1)
    1fc1:	00 00 00 
    1fc4:	66 2e 0f 1f 84 00 00 	nopw   %cs:0x0(%rax,%rax,1)
    1fcb:	00 00 00 
    1fce:	66 2e 0f 1f 84 00 00 	nopw   %cs:0x0(%rax,%rax,1)
    1fd5:	00 00 00 
    1fd8:	66 2e 0f 1f 84 00 00 	nopw   %cs:0x0(%rax,%rax,1)
    1fdf:	00 00 00 
    1fe2:	66 2e 0f 1f 84 00 00 	nopw   %cs:0x0(%rax,%rax,1)
    1fe9:	00 00 00 
    1fec:	66 2e 0f 1f 84 00 00 	nopw   %cs:0x0(%rax,%rax,1)
    1ff3:	00 00 00 
    1ff6:	66 2e 0f 1f 84 00 00 	nopw   %cs:0x0(%rax,%rax,1)
    1ffd:	00 00 00 

0000000000002000 <print_message>:
    2000:	55                   	push   %rbp
    2001:	48 89 e5             	mov    %rsp,%rbp
    2004:	48 83 ec 20          	sub    $0x20,%rsp
    2008:	48 89 7d e8          	mov    %rdi,-0x18(%rbp)
    200c:	89 75 e4             	mov    %esi,-0x1c(%rbp)
    200f:	c7 45 f8 00 00 00 00 	movl   $0x0,-0x8(%rbp)
    2016:	c7 45 fc 00 00 00 00 	movl   $0x0,-0x4(%rbp)
    201d:	eb 65                	jmp    2084 <_CDI_printf_AT_PLT_TO_printer.s.print_message_1+0x9>
    201f:	8b 45 fc             	mov    -0x4(%rbp),%eax
    2022:	48 98                	cltq   
    2024:	48 8d 14 c5 00 00 00 	lea    0x0(,%rax,8),%rdx
    202b:	00 
    202c:	48 8b 45 e8          	mov    -0x18(%rbp),%rax
    2030:	48 01 d0             	add    %rdx,%rax
    2033:	48 8b 00             	mov    (%rax),%rax
    2036:	48 89 c7             	mov    %rax,%rdi
    2039:	e8 f2 e5 ff ff       	callq  630 <strlen@plt>

000000000000203e <_CDI_strlen_AT_PLT_TO_printer.s.print_message_1>:
    203e:	48 8b 6c 24 f0       	mov    -0x10(%rsp),%rbp
    2043:	89 c2                	mov    %eax,%edx
    2045:	8b 45 f8             	mov    -0x8(%rbp),%eax
    2048:	01 d0                	add    %edx,%eax
    204a:	83 c0 01             	add    $0x1,%eax
    204d:	89 45 f8             	mov    %eax,-0x8(%rbp)
    2050:	8b 45 fc             	mov    -0x4(%rbp),%eax
    2053:	48 98                	cltq   
    2055:	48 8d 14 c5 00 00 00 	lea    0x0(,%rax,8),%rdx
    205c:	00 
    205d:	48 8b 45 e8          	mov    -0x18(%rbp),%rax
    2061:	48 01 d0             	add    %rdx,%rax
    2064:	48 8b 00             	mov    (%rax),%rax
    2067:	48 89 c6             	mov    %rax,%rsi
    206a:	48 8d 3d 00 10 00 00 	lea    0x1000(%rip),%rdi        # 3071 <_fini+0x9>
    2071:	b8 00 00 00 00       	mov    $0x0,%eax
    2076:	e8 c5 e5 ff ff       	callq  640 <printf@plt>

000000000000207b <_CDI_printf_AT_PLT_TO_printer.s.print_message_1>:
    207b:	48 8b 6c 24 f0       	mov    -0x10(%rsp),%rbp
    2080:	83 45 fc 01          	addl   $0x1,-0x4(%rbp)
    2084:	8b 45 fc             	mov    -0x4(%rbp),%eax
    2087:	3b 45 e4             	cmp    -0x1c(%rbp),%eax
    208a:	7c 93                	jl     201f <print_message+0x1f>
    208c:	8b 45 f8             	mov    -0x8(%rbp),%eax
    208f:	89 c6                	mov    %eax,%esi
    2091:	48 8d 3d dd 0f 00 00 	lea    0xfdd(%rip),%rdi        # 3075 <_fini+0xd>
    2098:	b8 00 00 00 00       	mov    $0x0,%eax
    209d:	e8 9e e5 ff ff       	callq  640 <printf@plt>

00000000000020a2 <_CDI_printf_AT_PLT_TO_printer.s.print_message_2>:
    20a2:	48 8b 6c 24 f0       	mov    -0x10(%rsp),%rbp
    20a7:	90                   	nop
    20a8:	c9                   	leaveq 
    20a9:	48 83 c4 08          	add    $0x8,%rsp
    20ad:	e9 4e 0f 00 00       	jmpq   3000 <_CDI_SLT>
    20b2:	90                   	nop
    20b3:	90                   	nop
    20b4:	90                   	nop
    20b5:	90                   	nop
    20b6:	90                   	nop
    20b7:	90                   	nop
    20b8:	90                   	nop
    20b9:	90                   	nop
    20ba:	90                   	nop
    20bb:	90                   	nop
    20bc:	90                   	nop
    20bd:	90                   	nop
    20be:	90                   	nop
    20bf:	90                   	nop
    20c0:	90                   	nop
    20c1:	90                   	nop
    20c2:	90                   	nop
    20c3:	90                   	nop
    20c4:	90                   	nop
    20c5:	90                   	nop
    20c6:	90                   	nop
    20c7:	90                   	nop
    20c8:	90                   	nop
    20c9:	90                   	nop
    20ca:	90                   	nop
    20cb:	90                   	nop
    20cc:	90                   	nop
    20cd:	90                   	nop
    20ce:	90                   	nop
    20cf:	90                   	nop
    20d0:	90                   	nop
    20d1:	90                   	nop
    20d2:	90                   	nop
    20d3:	90                   	nop
    20d4:	90                   	nop
    20d5:	90                   	nop
    20d6:	90                   	nop
    20d7:	90                   	nop
    20d8:	90                   	nop
    20d9:	90                   	nop
    20da:	90                   	nop
    20db:	90                   	nop
    20dc:	90                   	nop
    20dd:	90                   	nop
    20de:	90                   	nop
    20df:	90                   	nop
    20e0:	90                   	nop
    20e1:	90                   	nop
    20e2:	90                   	nop
    20e3:	90                   	nop
    20e4:	90                   	nop
    20e5:	90                   	nop
    20e6:	90                   	nop
    20e7:	90                   	nop
    20e8:	90                   	nop
    20e9:	90                   	nop
    20ea:	90                   	nop
    20eb:	90                   	nop
    20ec:	90                   	nop
    20ed:	90                   	nop
    20ee:	90                   	nop
    20ef:	90                   	nop
    20f0:	90                   	nop
    20f1:	90                   	nop
    20f2:	90                   	nop
    20f3:	90                   	nop
    20f4:	90                   	nop
    20f5:	90                   	nop
    20f6:	90                   	nop
    20f7:	90                   	nop
    20f8:	90                   	nop
    20f9:	90                   	nop
    20fa:	90                   	nop
    20fb:	90                   	nop
    20fc:	90                   	nop
    20fd:	90                   	nop
    20fe:	90                   	nop
    20ff:	90                   	nop
    2100:	90                   	nop
    2101:	90                   	nop
    2102:	90                   	nop
    2103:	90                   	nop
    2104:	90                   	nop
    2105:	90                   	nop
    2106:	90                   	nop
    2107:	90                   	nop
    2108:	90                   	nop
    2109:	90                   	nop
    210a:	90                   	nop
    210b:	90                   	nop
    210c:	90                   	nop
    210d:	90                   	nop
    210e:	90                   	nop
    210f:	90                   	nop
    2110:	90                   	nop
    2111:	90                   	nop
    2112:	90                   	nop
    2113:	90                   	nop
    2114:	90                   	nop
    2115:	90                   	nop
    2116:	90                   	nop
    2117:	90                   	nop
    2118:	90                   	nop
    2119:	90                   	nop
    211a:	90                   	nop
    211b:	90                   	nop
    211c:	90                   	nop
    211d:	90                   	nop
    211e:	90                   	nop
    211f:	90                   	nop
    2120:	90                   	nop
    2121:	90                   	nop
    2122:	90                   	nop
    2123:	90                   	nop
    2124:	90                   	nop
    2125:	90                   	nop
    2126:	90                   	nop
    2127:	90                   	nop
    2128:	90                   	nop
    2129:	90                   	nop
    212a:	90                   	nop
    212b:	90                   	nop
    212c:	90                   	nop
    212d:	90                   	nop
    212e:	90                   	nop
    212f:	90                   	nop
    2130:	90                   	nop
    2131:	90                   	nop
    2132:	90                   	nop
    2133:	90                   	nop
    2134:	90                   	nop
    2135:	90                   	nop
    2136:	90                   	nop
    2137:	90                   	nop
    2138:	90                   	nop
    2139:	90                   	nop
    213a:	90                   	nop
    213b:	90                   	nop
    213c:	90                   	nop
    213d:	90                   	nop
    213e:	90                   	nop
    213f:	90                   	nop
    2140:	90                   	nop
    2141:	90                   	nop
    2142:	90                   	nop
    2143:	90                   	nop
    2144:	90                   	nop
    2145:	90                   	nop
    2146:	90                   	nop
    2147:	90                   	nop
    2148:	90                   	nop
    2149:	90                   	nop
    214a:	90                   	nop
    214b:	90                   	nop
    214c:	90                   	nop
    214d:	90                   	nop
    214e:	90                   	nop
    214f:	90                   	nop
    2150:	90                   	nop
    2151:	90                   	nop
    2152:	90                   	nop
    2153:	90                   	nop
    2154:	90                   	nop
    2155:	90                   	nop
    2156:	90                   	nop
    2157:	90                   	nop
    2158:	90                   	nop
    2159:	90                   	nop
    215a:	90                   	nop
    215b:	90                   	nop
    215c:	90                   	nop
    215d:	90                   	nop
    215e:	90                   	nop
    215f:	90                   	nop
    2160:	90                   	nop
    2161:	90                   	nop
    2162:	90                   	nop
    2163:	90                   	nop
    2164:	90                   	nop
    2165:	90                   	nop
    2166:	90                   	nop
    2167:	90                   	nop
    2168:	90                   	nop
    2169:	90                   	nop
    216a:	90                   	nop
    216b:	90                   	nop
    216c:	90                   	nop
    216d:	90                   	nop
    216e:	90                   	nop
    216f:	90                   	nop
    2170:	90                   	nop
    2171:	90                   	nop
    2172:	90                   	nop
    2173:	90                   	nop
    2174:	90                   	nop
    2175:	90                   	nop
    2176:	90                   	nop
    2177:	90                   	nop
    2178:	90                   	nop
    2179:	90                   	nop
    217a:	90                   	nop
    217b:	90                   	nop
    217c:	90                   	nop
    217d:	90                   	nop
    217e:	90                   	nop
    217f:	90                   	nop
    2180:	90                   	nop
    2181:	90                   	nop
    2182:	90                   	nop
    2183:	90                   	nop
    2184:	90                   	nop
    2185:	90                   	nop
    2186:	90                   	nop
    2187:	90                   	nop
    2188:	90                   	nop
    2189:	90                   	nop
    218a:	90                   	nop
    218b:	90                   	nop
    218c:	90                   	nop
    218d:	90                   	nop
    218e:	90                   	nop
    218f:	90                   	nop
    2190:	90                   	nop
    2191:	90                   	nop
    2192:	90                   	nop
    2193:	90                   	nop
    2194:	90                   	nop
    2195:	90                   	nop
    2196:	90                   	nop
    2197:	90                   	nop
    2198:	90                   	nop
    2199:	90                   	nop
    219a:	90                   	nop
    219b:	90                   	nop
    219c:	90                   	nop
    219d:	90                   	nop
    219e:	90                   	nop
    219f:	90                   	nop
    21a0:	90                   	nop
    21a1:	90                   	nop
    21a2:	90                   	nop
    21a3:	90                   	nop
    21a4:	90                   	nop
    21a5:	90                   	nop
    21a6:	90                   	nop
    21a7:	90                   	nop
    21a8:	90                   	nop
    21a9:	90                   	nop
    21aa:	90                   	nop
    21ab:	90                   	nop
    21ac:	90                   	nop
    21ad:	90                   	nop
    21ae:	90                   	nop
    21af:	90                   	nop
    21b0:	90                   	nop
    21b1:	90                   	nop
    21b2:	90                   	nop
    21b3:	90                   	nop
    21b4:	90                   	nop
    21b5:	90                   	nop
    21b6:	90                   	nop
    21b7:	90                   	nop
    21b8:	90                   	nop
    21b9:	90                   	nop
    21ba:	90                   	nop
    21bb:	90                   	nop
    21bc:	90                   	nop
    21bd:	90                   	nop
    21be:	90                   	nop
    21bf:	90                   	nop
    21c0:	90                   	nop
    21c1:	90                   	nop
    21c2:	90                   	nop
    21c3:	90                   	nop
    21c4:	90                   	nop
    21c5:	90                   	nop
    21c6:	90                   	nop
    21c7:	90                   	nop
    21c8:	90                   	nop
    21c9:	90                   	nop
    21ca:	90                   	nop
    21cb:	90                   	nop
    21cc:	90                   	nop
    21cd:	90                   	nop
    21ce:	90                   	nop
    21cf:	90                   	nop
    21d0:	90                   	nop
    21d1:	90                   	nop
    21d2:	90                   	nop
    21d3:	90                   	nop
    21d4:	90                   	nop
    21d5:	90                   	nop
    21d6:	90                   	nop
    21d7:	90                   	nop
    21d8:	90                   	nop
    21d9:	90                   	nop
    21da:	90                   	nop
    21db:	90                   	nop
    21dc:	90                   	nop
    21dd:	90                   	nop
    21de:	90                   	nop
    21df:	90                   	nop
    21e0:	90                   	nop
    21e1:	90                   	nop
    21e2:	90                   	nop
    21e3:	90                   	nop
    21e4:	90                   	nop
    21e5:	90                   	nop
    21e6:	90                   	nop
    21e7:	90                   	nop
    21e8:	90                   	nop
    21e9:	90                   	nop
    21ea:	90                   	nop
    21eb:	90                   	nop
    21ec:	90                   	nop
    21ed:	90                   	nop
    21ee:	90                   	nop
    21ef:	90                   	nop
    21f0:	90                   	nop
    21f1:	90                   	nop
    21f2:	90                   	nop
    21f3:	90                   	nop
    21f4:	90                   	nop
    21f5:	90                   	nop
    21f6:	90                   	nop
    21f7:	90                   	nop
    21f8:	90                   	nop
    21f9:	90                   	nop
    21fa:	90                   	nop
    21fb:	90                   	nop
    21fc:	90                   	nop
    21fd:	90                   	nop
    21fe:	90                   	nop
    21ff:	90                   	nop
    2200:	90                   	nop
    2201:	90                   	nop
    2202:	90                   	nop
    2203:	90                   	nop
    2204:	90                   	nop
    2205:	90                   	nop
    2206:	90                   	nop
    2207:	90                   	nop
    2208:	90                   	nop
    2209:	90                   	nop
    220a:	90                   	nop
    220b:	90                   	nop
    220c:	90                   	nop
    220d:	90                   	nop
    220e:	90                   	nop
    220f:	90                   	nop
    2210:	90                   	nop
    2211:	90                   	nop
    2212:	90                   	nop
    2213:	90                   	nop
    2214:	90                   	nop
    2215:	90                   	nop
    2216:	90                   	nop
    2217:	90                   	nop
    2218:	90                   	nop
    2219:	90                   	nop
    221a:	90                   	nop
    221b:	90                   	nop
    221c:	90                   	nop
    221d:	90                   	nop
    221e:	90                   	nop
    221f:	90                   	nop
    2220:	90                   	nop
    2221:	90                   	nop
    2222:	90                   	nop
    2223:	90                   	nop
    2224:	90                   	nop
    2225:	90                   	nop
    2226:	90                   	nop
    2227:	90                   	nop
    2228:	90                   	nop
    2229:	90                   	nop
    222a:	90                   	nop
    222b:	90                   	nop
    222c:	90                   	nop
    222d:	90                   	nop
    222e:	90                   	nop
    222f:	90                   	nop
    2230:	90                   	nop
    2231:	90                   	nop
    2232:	90                   	nop
    2233:	90                   	nop
    2234:	90                   	nop
    2235:	90                   	nop
    2236:	90                   	nop
    2237:	90                   	nop
    2238:	90                   	nop
    2239:	90                   	nop
    223a:	90                   	nop
    223b:	90                   	nop
    223c:	90                   	nop
    223d:	90                   	nop
    223e:	90                   	nop
    223f:	90                   	nop
    2240:	90                   	nop
    2241:	90                   	nop
    2242:	90                   	nop
    2243:	90                   	nop
    2244:	90                   	nop
    2245:	90                   	nop
    2246:	90                   	nop
    2247:	90                   	nop
    2248:	90                   	nop
    2249:	90                   	nop
    224a:	90                   	nop
    224b:	90                   	nop
    224c:	90                   	nop
    224d:	90                   	nop
    224e:	90                   	nop
    224f:	90                   	nop
    2250:	90                   	nop
    2251:	90                   	nop
    2252:	90                   	nop
    2253:	90                   	nop
    2254:	90                   	nop
    2255:	90                   	nop
    2256:	90                   	nop
    2257:	90                   	nop
    2258:	90                   	nop
    2259:	90                   	nop
    225a:	90                   	nop
    225b:	90                   	nop
    225c:	90                   	nop
    225d:	90                   	nop
    225e:	90                   	nop
    225f:	90                   	nop
    2260:	90                   	nop
    2261:	90                   	nop
    2262:	90                   	nop
    2263:	90                   	nop
    2264:	90                   	nop
    2265:	90                   	nop
    2266:	90                   	nop
    2267:	90                   	nop
    2268:	90                   	nop
    2269:	90                   	nop
    226a:	90                   	nop
    226b:	90                   	nop
    226c:	90                   	nop
    226d:	90                   	nop
    226e:	90                   	nop
    226f:	90                   	nop
    2270:	90                   	nop
    2271:	90                   	nop
    2272:	90                   	nop
    2273:	90                   	nop
    2274:	90                   	nop
    2275:	90                   	nop
    2276:	90                   	nop
    2277:	90                   	nop
    2278:	90                   	nop
    2279:	90                   	nop
    227a:	90                   	nop
    227b:	90                   	nop
    227c:	90                   	nop
    227d:	90                   	nop
    227e:	90                   	nop
    227f:	90                   	nop
    2280:	90                   	nop
    2281:	90                   	nop
    2282:	90                   	nop
    2283:	90                   	nop
    2284:	90                   	nop
    2285:	90                   	nop
    2286:	90                   	nop
    2287:	90                   	nop
    2288:	90                   	nop
    2289:	90                   	nop
    228a:	90                   	nop
    228b:	90                   	nop
    228c:	90                   	nop
    228d:	90                   	nop
    228e:	90                   	nop
    228f:	90                   	nop
    2290:	90                   	nop
    2291:	90                   	nop
    2292:	90                   	nop
    2293:	90                   	nop
    2294:	90                   	nop
    2295:	90                   	nop
    2296:	90                   	nop
    2297:	90                   	nop
    2298:	90                   	nop
    2299:	90                   	nop
    229a:	90                   	nop
    229b:	90                   	nop
    229c:	90                   	nop
    229d:	90                   	nop
    229e:	90                   	nop
    229f:	90                   	nop
    22a0:	90                   	nop
    22a1:	90                   	nop
    22a2:	90                   	nop
    22a3:	90                   	nop
    22a4:	90                   	nop
    22a5:	90                   	nop
    22a6:	90                   	nop
    22a7:	90                   	nop
    22a8:	90                   	nop
    22a9:	90                   	nop
    22aa:	90                   	nop
    22ab:	90                   	nop
    22ac:	90                   	nop
    22ad:	90                   	nop
    22ae:	90                   	nop
    22af:	90                   	nop
    22b0:	90                   	nop
    22b1:	90                   	nop
    22b2:	90                   	nop
    22b3:	90                   	nop
    22b4:	90                   	nop
    22b5:	90                   	nop
    22b6:	90                   	nop
    22b7:	90                   	nop
    22b8:	90                   	nop
    22b9:	90                   	nop
    22ba:	90                   	nop
    22bb:	90                   	nop
    22bc:	90                   	nop
    22bd:	90                   	nop
    22be:	90                   	nop
    22bf:	90                   	nop
    22c0:	90                   	nop
    22c1:	90                   	nop
    22c2:	90                   	nop
    22c3:	90                   	nop
    22c4:	90                   	nop
    22c5:	90                   	nop
    22c6:	90                   	nop
    22c7:	90                   	nop
    22c8:	90                   	nop
    22c9:	90                   	nop
    22ca:	90                   	nop
    22cb:	90                   	nop
    22cc:	90                   	nop
    22cd:	90                   	nop
    22ce:	90                   	nop
    22cf:	90                   	nop
    22d0:	90                   	nop
    22d1:	90                   	nop
    22d2:	90                   	nop
    22d3:	90                   	nop
    22d4:	90                   	nop
    22d5:	90                   	nop
    22d6:	90                   	nop
    22d7:	90                   	nop
    22d8:	90                   	nop
    22d9:	90                   	nop
    22da:	90                   	nop
    22db:	90                   	nop
    22dc:	90                   	nop
    22dd:	90                   	nop
    22de:	90                   	nop
    22df:	90                   	nop
    22e0:	90                   	nop
    22e1:	90                   	nop
    22e2:	90                   	nop
    22e3:	90                   	nop
    22e4:	90                   	nop
    22e5:	90                   	nop
    22e6:	90                   	nop
    22e7:	90                   	nop
    22e8:	90                   	nop
    22e9:	90                   	nop
    22ea:	90                   	nop
    22eb:	90                   	nop
    22ec:	90                   	nop
    22ed:	90                   	nop
    22ee:	90                   	nop
    22ef:	90                   	nop
    22f0:	90                   	nop
    22f1:	90                   	nop
    22f2:	90                   	nop
    22f3:	90                   	nop
    22f4:	90                   	nop
    22f5:	90                   	nop
    22f6:	90                   	nop
    22f7:	90                   	nop
    22f8:	90                   	nop
    22f9:	90                   	nop
    22fa:	90                   	nop
    22fb:	90                   	nop
    22fc:	90                   	nop
    22fd:	90                   	nop
    22fe:	90                   	nop
    22ff:	90                   	nop
    2300:	90                   	nop
    2301:	90                   	nop
    2302:	90                   	nop
    2303:	90                   	nop
    2304:	90                   	nop
    2305:	90                   	nop
    2306:	90                   	nop
    2307:	90                   	nop
    2308:	90                   	nop
    2309:	90                   	nop
    230a:	90                   	nop
    230b:	90                   	nop
    230c:	90                   	nop
    230d:	90                   	nop
    230e:	90                   	nop
    230f:	90                   	nop
    2310:	90                   	nop
    2311:	90                   	nop
    2312:	90                   	nop
    2313:	90                   	nop
    2314:	90                   	nop
    2315:	90                   	nop
    2316:	90                   	nop
    2317:	90                   	nop
    2318:	90                   	nop
    2319:	90                   	nop
    231a:	90                   	nop
    231b:	90                   	nop
    231c:	90                   	nop
    231d:	90                   	nop
    231e:	90                   	nop
    231f:	90                   	nop
    2320:	90                   	nop
    2321:	90                   	nop
    2322:	90                   	nop
    2323:	90                   	nop
    2324:	90                   	nop
    2325:	90                   	nop
    2326:	90                   	nop
    2327:	90                   	nop
    2328:	90                   	nop
    2329:	90                   	nop
    232a:	90                   	nop
    232b:	90                   	nop
    232c:	90                   	nop
    232d:	90                   	nop
    232e:	90                   	nop
    232f:	90                   	nop
    2330:	90                   	nop
    2331:	90                   	nop
    2332:	90                   	nop
    2333:	90                   	nop
    2334:	90                   	nop
    2335:	90                   	nop
    2336:	90                   	nop
    2337:	90                   	nop
    2338:	90                   	nop
    2339:	90                   	nop
    233a:	90                   	nop
    233b:	90                   	nop
    233c:	90                   	nop
    233d:	90                   	nop
    233e:	90                   	nop
    233f:	90                   	nop
    2340:	90                   	nop
    2341:	90                   	nop
    2342:	90                   	nop
    2343:	90                   	nop
    2344:	90                   	nop
    2345:	90                   	nop
    2346:	90                   	nop
    2347:	90                   	nop
    2348:	90                   	nop
    2349:	90                   	nop
    234a:	90                   	nop
    234b:	90                   	nop
    234c:	90                   	nop
    234d:	90                   	nop
    234e:	90                   	nop
    234f:	90                   	nop
    2350:	90                   	nop
    2351:	90                   	nop
    2352:	90                   	nop
    2353:	90                   	nop
    2354:	90                   	nop
    2355:	90                   	nop
    2356:	90                   	nop
    2357:	90                   	nop
    2358:	90                   	nop
    2359:	90                   	nop
    235a:	90                   	nop
    235b:	90                   	nop
    235c:	90                   	nop
    235d:	90                   	nop
    235e:	90                   	nop
    235f:	90                   	nop
    2360:	90                   	nop
    2361:	90                   	nop
    2362:	90                   	nop
    2363:	90                   	nop
    2364:	90                   	nop
    2365:	90                   	nop
    2366:	90                   	nop
    2367:	90                   	nop
    2368:	90                   	nop
    2369:	90                   	nop
    236a:	90                   	nop
    236b:	90                   	nop
    236c:	90                   	nop
    236d:	90                   	nop
    236e:	90                   	nop
    236f:	90                   	nop
    2370:	90                   	nop
    2371:	90                   	nop
    2372:	90                   	nop
    2373:	90                   	nop
    2374:	90                   	nop
    2375:	90                   	nop
    2376:	90                   	nop
    2377:	90                   	nop
    2378:	90                   	nop
    2379:	90                   	nop
    237a:	90                   	nop
    237b:	90                   	nop
    237c:	90                   	nop
    237d:	90                   	nop
    237e:	90                   	nop
    237f:	90                   	nop
    2380:	90                   	nop
    2381:	90                   	nop
    2382:	90                   	nop
    2383:	90                   	nop
    2384:	90                   	nop
    2385:	90                   	nop
    2386:	90                   	nop
    2387:	90                   	nop
    2388:	90                   	nop
    2389:	90                   	nop
    238a:	90                   	nop
    238b:	90                   	nop
    238c:	90                   	nop
    238d:	90                   	nop
    238e:	90                   	nop
    238f:	90                   	nop
    2390:	90                   	nop
    2391:	90                   	nop
    2392:	90                   	nop
    2393:	90                   	nop
    2394:	90                   	nop
    2395:	90                   	nop
    2396:	90                   	nop
    2397:	90                   	nop
    2398:	90                   	nop
    2399:	90                   	nop
    239a:	90                   	nop
    239b:	90                   	nop
    239c:	90                   	nop
    239d:	90                   	nop
    239e:	90                   	nop
    239f:	90                   	nop
    23a0:	90                   	nop
    23a1:	90                   	nop
    23a2:	90                   	nop
    23a3:	90                   	nop
    23a4:	90                   	nop
    23a5:	90                   	nop
    23a6:	90                   	nop
    23a7:	90                   	nop
    23a8:	90                   	nop
    23a9:	90                   	nop
    23aa:	90                   	nop
    23ab:	90                   	nop
    23ac:	90                   	nop
    23ad:	90                   	nop
    23ae:	90                   	nop
    23af:	90                   	nop
    23b0:	90                   	nop
    23b1:	90                   	nop
    23b2:	90                   	nop
    23b3:	90                   	nop
    23b4:	90                   	nop
    23b5:	90                   	nop
    23b6:	90                   	nop
    23b7:	90                   	nop
    23b8:	90                   	nop
    23b9:	90                   	nop
    23ba:	90                   	nop
    23bb:	90                   	nop
    23bc:	90                   	nop
    23bd:	90                   	nop
    23be:	90                   	nop
    23bf:	90                   	nop
    23c0:	90                   	nop
    23c1:	90                   	nop
    23c2:	90                   	nop
    23c3:	90                   	nop
    23c4:	90                   	nop
    23c5:	90                   	nop
    23c6:	90                   	nop
    23c7:	90                   	nop
    23c8:	90                   	nop
    23c9:	90                   	nop
    23ca:	90                   	nop
    23cb:	90                   	nop
    23cc:	90                   	nop
    23cd:	90                   	nop
    23ce:	90                   	nop
    23cf:	90                   	nop
    23d0:	90                   	nop
    23d1:	90                   	nop
    23d2:	90                   	nop
    23d3:	90                   	nop
    23d4:	90                   	nop
    23d5:	90                   	nop
    23d6:	90                   	nop
    23d7:	90                   	nop
    23d8:	90                   	nop
    23d9:	90                   	nop
    23da:	90                   	nop
    23db:	90                   	nop
    23dc:	90                   	nop
    23dd:	90                   	nop
    23de:	90                   	nop
    23df:	90                   	nop
    23e0:	90                   	nop
    23e1:	90                   	nop
    23e2:	90                   	nop
    23e3:	90                   	nop
    23e4:	90                   	nop
    23e5:	90                   	nop
    23e6:	90                   	nop
    23e7:	90                   	nop
    23e8:	90                   	nop
    23e9:	90                   	nop
    23ea:	90                   	nop
    23eb:	90                   	nop
    23ec:	90                   	nop
    23ed:	90                   	nop
    23ee:	90                   	nop
    23ef:	90                   	nop
    23f0:	90                   	nop
    23f1:	90                   	nop
    23f2:	90                   	nop
    23f3:	90                   	nop
    23f4:	90                   	nop
    23f5:	90                   	nop
    23f6:	90                   	nop
    23f7:	90                   	nop
    23f8:	90                   	nop
    23f9:	90                   	nop
    23fa:	90                   	nop
    23fb:	90                   	nop
    23fc:	90                   	nop
    23fd:	90                   	nop
    23fe:	90                   	nop
    23ff:	90                   	nop
    2400:	90                   	nop
    2401:	90                   	nop
    2402:	90                   	nop
    2403:	90                   	nop
    2404:	90                   	nop
    2405:	90                   	nop
    2406:	90                   	nop
    2407:	90                   	nop
    2408:	90                   	nop
    2409:	90                   	nop
    240a:	90                   	nop
    240b:	90                   	nop
    240c:	90                   	nop
    240d:	90                   	nop
    240e:	90                   	nop
    240f:	90                   	nop
    2410:	90                   	nop
    2411:	90                   	nop
    2412:	90                   	nop
    2413:	90                   	nop
    2414:	90                   	nop
    2415:	90                   	nop
    2416:	90                   	nop
    2417:	90                   	nop
    2418:	90                   	nop
    2419:	90                   	nop
    241a:	90                   	nop
    241b:	90                   	nop
    241c:	90                   	nop
    241d:	90                   	nop
    241e:	90                   	nop
    241f:	90                   	nop
    2420:	90                   	nop
    2421:	90                   	nop
    2422:	90                   	nop
    2423:	90                   	nop
    2424:	90                   	nop
    2425:	90                   	nop
    2426:	90                   	nop
    2427:	90                   	nop
    2428:	90                   	nop
    2429:	90                   	nop
    242a:	90                   	nop
    242b:	90                   	nop
    242c:	90                   	nop
    242d:	90                   	nop
    242e:	90                   	nop
    242f:	90                   	nop
    2430:	90                   	nop
    2431:	90                   	nop
    2432:	90                   	nop
    2433:	90                   	nop
    2434:	90                   	nop
    2435:	90                   	nop
    2436:	90                   	nop
    2437:	90                   	nop
    2438:	90                   	nop
    2439:	90                   	nop
    243a:	90                   	nop
    243b:	90                   	nop
    243c:	90                   	nop
    243d:	90                   	nop
    243e:	90                   	nop
    243f:	90                   	nop
    2440:	90                   	nop
    2441:	90                   	nop
    2442:	90                   	nop
    2443:	90                   	nop
    2444:	90                   	nop
    2445:	90                   	nop
    2446:	90                   	nop
    2447:	90                   	nop
    2448:	90                   	nop
    2449:	90                   	nop
    244a:	90                   	nop
    244b:	90                   	nop
    244c:	90                   	nop
    244d:	90                   	nop
    244e:	90                   	nop
    244f:	90                   	nop
    2450:	90                   	nop
    2451:	90                   	nop
    2452:	90                   	nop
    2453:	90                   	nop
    2454:	90                   	nop
    2455:	90                   	nop
    2456:	90                   	nop
    2457:	90                   	nop
    2458:	90                   	nop
    2459:	90                   	nop
    245a:	90                   	nop
    245b:	90                   	nop
    245c:	90                   	nop
    245d:	90                   	nop
    245e:	90                   	nop
    245f:	90                   	nop
    2460:	90                   	nop
    2461:	90                   	nop
    2462:	90                   	nop
    2463:	90                   	nop
    2464:	90                   	nop
    2465:	90                   	nop
    2466:	90                   	nop
    2467:	90                   	nop
    2468:	90                   	nop
    2469:	90                   	nop
    246a:	90                   	nop
    246b:	90                   	nop
    246c:	90                   	nop
    246d:	90                   	nop
    246e:	90                   	nop
    246f:	90                   	nop
    2470:	90                   	nop
    2471:	90                   	nop
    2472:	90                   	nop
    2473:	90                   	nop
    2474:	90                   	nop
    2475:	90                   	nop
    2476:	90                   	nop
    2477:	90                   	nop
    2478:	90                   	nop
    2479:	90                   	nop
    247a:	90                   	nop
    247b:	90                   	nop
    247c:	90                   	nop
    247d:	90                   	nop
    247e:	90                   	nop
    247f:	90                   	nop
    2480:	90                   	nop
    2481:	90                   	nop
    2482:	90                   	nop
    2483:	90                   	nop
    2484:	90                   	nop
    2485:	90                   	nop
    2486:	90                   	nop
    2487:	90                   	nop
    2488:	90                   	nop
    2489:	90                   	nop
    248a:	90                   	nop
    248b:	90                   	nop
    248c:	90                   	nop
    248d:	90                   	nop
    248e:	90                   	nop
    248f:	90                   	nop
    2490:	90                   	nop
    2491:	90                   	nop
    2492:	90                   	nop
    2493:	90                   	nop
    2494:	90                   	nop
    2495:	90                   	nop
    2496:	90                   	nop
    2497:	90                   	nop
    2498:	90                   	nop
    2499:	90                   	nop
    249a:	90                   	nop
    249b:	90                   	nop
    249c:	90                   	nop
    249d:	90                   	nop
    249e:	90                   	nop
    249f:	90                   	nop
    24a0:	90                   	nop
    24a1:	90                   	nop
    24a2:	90                   	nop
    24a3:	90                   	nop
    24a4:	90                   	nop
    24a5:	90                   	nop
    24a6:	90                   	nop
    24a7:	90                   	nop
    24a8:	90                   	nop
    24a9:	90                   	nop
    24aa:	90                   	nop
    24ab:	90                   	nop
    24ac:	90                   	nop
    24ad:	90                   	nop
    24ae:	90                   	nop
    24af:	90                   	nop
    24b0:	90                   	nop
    24b1:	90                   	nop
    24b2:	90                   	nop
    24b3:	90                   	nop
    24b4:	90                   	nop
    24b5:	90                   	nop
    24b6:	90                   	nop
    24b7:	90                   	nop
    24b8:	90                   	nop
    24b9:	90                   	nop
    24ba:	90                   	nop
    24bb:	90                   	nop
    24bc:	90                   	nop
    24bd:	90                   	nop
    24be:	90                   	nop
    24bf:	90                   	nop
    24c0:	90                   	nop
    24c1:	90                   	nop
    24c2:	90                   	nop
    24c3:	90                   	nop
    24c4:	90                   	nop
    24c5:	90                   	nop
    24c6:	90                   	nop
    24c7:	90                   	nop
    24c8:	90                   	nop
    24c9:	90                   	nop
    24ca:	90                   	nop
    24cb:	90                   	nop
    24cc:	90                   	nop
    24cd:	90                   	nop
    24ce:	90                   	nop
    24cf:	90                   	nop
    24d0:	90                   	nop
    24d1:	90                   	nop
    24d2:	90                   	nop
    24d3:	90                   	nop
    24d4:	90                   	nop
    24d5:	90                   	nop
    24d6:	90                   	nop
    24d7:	90                   	nop
    24d8:	90                   	nop
    24d9:	90                   	nop
    24da:	90                   	nop
    24db:	90                   	nop
    24dc:	90                   	nop
    24dd:	90                   	nop
    24de:	90                   	nop
    24df:	90                   	nop
    24e0:	90                   	nop
    24e1:	90                   	nop
    24e2:	90                   	nop
    24e3:	90                   	nop
    24e4:	90                   	nop
    24e5:	90                   	nop
    24e6:	90                   	nop
    24e7:	90                   	nop
    24e8:	90                   	nop
    24e9:	90                   	nop
    24ea:	90                   	nop
    24eb:	90                   	nop
    24ec:	90                   	nop
    24ed:	90                   	nop
    24ee:	90                   	nop
    24ef:	90                   	nop
    24f0:	90                   	nop
    24f1:	90                   	nop
    24f2:	90                   	nop
    24f3:	90                   	nop
    24f4:	90                   	nop
    24f5:	90                   	nop
    24f6:	90                   	nop
    24f7:	90                   	nop
    24f8:	90                   	nop
    24f9:	90                   	nop
    24fa:	90                   	nop
    24fb:	90                   	nop
    24fc:	90                   	nop
    24fd:	90                   	nop
    24fe:	90                   	nop
    24ff:	90                   	nop
    2500:	90                   	nop
    2501:	90                   	nop
    2502:	90                   	nop
    2503:	90                   	nop
    2504:	90                   	nop
    2505:	90                   	nop
    2506:	90                   	nop
    2507:	90                   	nop
    2508:	90                   	nop
    2509:	90                   	nop
    250a:	90                   	nop
    250b:	90                   	nop
    250c:	90                   	nop
    250d:	90                   	nop
    250e:	90                   	nop
    250f:	90                   	nop
    2510:	90                   	nop
    2511:	90                   	nop
    2512:	90                   	nop
    2513:	90                   	nop
    2514:	90                   	nop
    2515:	90                   	nop
    2516:	90                   	nop
    2517:	90                   	nop
    2518:	90                   	nop
    2519:	90                   	nop
    251a:	90                   	nop
    251b:	90                   	nop
    251c:	90                   	nop
    251d:	90                   	nop
    251e:	90                   	nop
    251f:	90                   	nop
    2520:	90                   	nop
    2521:	90                   	nop
    2522:	90                   	nop
    2523:	90                   	nop
    2524:	90                   	nop
    2525:	90                   	nop
    2526:	90                   	nop
    2527:	90                   	nop
    2528:	90                   	nop
    2529:	90                   	nop
    252a:	90                   	nop
    252b:	90                   	nop
    252c:	90                   	nop
    252d:	90                   	nop
    252e:	90                   	nop
    252f:	90                   	nop
    2530:	90                   	nop
    2531:	90                   	nop
    2532:	90                   	nop
    2533:	90                   	nop
    2534:	90                   	nop
    2535:	90                   	nop
    2536:	90                   	nop
    2537:	90                   	nop
    2538:	90                   	nop
    2539:	90                   	nop
    253a:	90                   	nop
    253b:	90                   	nop
    253c:	90                   	nop
    253d:	90                   	nop
    253e:	90                   	nop
    253f:	90                   	nop
    2540:	90                   	nop
    2541:	90                   	nop
    2542:	90                   	nop
    2543:	90                   	nop
    2544:	90                   	nop
    2545:	90                   	nop
    2546:	90                   	nop
    2547:	90                   	nop
    2548:	90                   	nop
    2549:	90                   	nop
    254a:	90                   	nop
    254b:	90                   	nop
    254c:	90                   	nop
    254d:	90                   	nop
    254e:	90                   	nop
    254f:	90                   	nop
    2550:	90                   	nop
    2551:	90                   	nop
    2552:	90                   	nop
    2553:	90                   	nop
    2554:	90                   	nop
    2555:	90                   	nop
    2556:	90                   	nop
    2557:	90                   	nop
    2558:	90                   	nop
    2559:	90                   	nop
    255a:	90                   	nop
    255b:	90                   	nop
    255c:	90                   	nop
    255d:	90                   	nop
    255e:	90                   	nop
    255f:	90                   	nop
    2560:	90                   	nop
    2561:	90                   	nop
    2562:	90                   	nop
    2563:	90                   	nop
    2564:	90                   	nop
    2565:	90                   	nop
    2566:	90                   	nop
    2567:	90                   	nop
    2568:	90                   	nop
    2569:	90                   	nop
    256a:	90                   	nop
    256b:	90                   	nop
    256c:	90                   	nop
    256d:	90                   	nop
    256e:	90                   	nop
    256f:	90                   	nop
    2570:	90                   	nop
    2571:	90                   	nop
    2572:	90                   	nop
    2573:	90                   	nop
    2574:	90                   	nop
    2575:	90                   	nop
    2576:	90                   	nop
    2577:	90                   	nop
    2578:	90                   	nop
    2579:	90                   	nop
    257a:	90                   	nop
    257b:	90                   	nop
    257c:	90                   	nop
    257d:	90                   	nop
    257e:	90                   	nop
    257f:	90                   	nop
    2580:	90                   	nop
    2581:	90                   	nop
    2582:	90                   	nop
    2583:	90                   	nop
    2584:	90                   	nop
    2585:	90                   	nop
    2586:	90                   	nop
    2587:	90                   	nop
    2588:	90                   	nop
    2589:	90                   	nop
    258a:	90                   	nop
    258b:	90                   	nop
    258c:	90                   	nop
    258d:	90                   	nop
    258e:	90                   	nop
    258f:	90                   	nop
    2590:	90                   	nop
    2591:	90                   	nop
    2592:	90                   	nop
    2593:	90                   	nop
    2594:	90                   	nop
    2595:	90                   	nop
    2596:	90                   	nop
    2597:	90                   	nop
    2598:	90                   	nop
    2599:	90                   	nop
    259a:	90                   	nop
    259b:	90                   	nop
    259c:	90                   	nop
    259d:	90                   	nop
    259e:	90                   	nop
    259f:	90                   	nop
    25a0:	90                   	nop
    25a1:	90                   	nop
    25a2:	90                   	nop
    25a3:	90                   	nop
    25a4:	90                   	nop
    25a5:	90                   	nop
    25a6:	90                   	nop
    25a7:	90                   	nop
    25a8:	90                   	nop
    25a9:	90                   	nop
    25aa:	90                   	nop
    25ab:	90                   	nop
    25ac:	90                   	nop
    25ad:	90                   	nop
    25ae:	90                   	nop
    25af:	90                   	nop
    25b0:	90                   	nop
    25b1:	90                   	nop
    25b2:	90                   	nop
    25b3:	90                   	nop
    25b4:	90                   	nop
    25b5:	90                   	nop
    25b6:	90                   	nop
    25b7:	90                   	nop
    25b8:	90                   	nop
    25b9:	90                   	nop
    25ba:	90                   	nop
    25bb:	90                   	nop
    25bc:	90                   	nop
    25bd:	90                   	nop
    25be:	90                   	nop
    25bf:	90                   	nop
    25c0:	90                   	nop
    25c1:	90                   	nop
    25c2:	90                   	nop
    25c3:	90                   	nop
    25c4:	90                   	nop
    25c5:	90                   	nop
    25c6:	90                   	nop
    25c7:	90                   	nop
    25c8:	90                   	nop
    25c9:	90                   	nop
    25ca:	90                   	nop
    25cb:	90                   	nop
    25cc:	90                   	nop
    25cd:	90                   	nop
    25ce:	90                   	nop
    25cf:	90                   	nop
    25d0:	90                   	nop
    25d1:	90                   	nop
    25d2:	90                   	nop
    25d3:	90                   	nop
    25d4:	90                   	nop
    25d5:	90                   	nop
    25d6:	90                   	nop
    25d7:	90                   	nop
    25d8:	90                   	nop
    25d9:	90                   	nop
    25da:	90                   	nop
    25db:	90                   	nop
    25dc:	90                   	nop
    25dd:	90                   	nop
    25de:	90                   	nop
    25df:	90                   	nop
    25e0:	90                   	nop
    25e1:	90                   	nop
    25e2:	90                   	nop
    25e3:	90                   	nop
    25e4:	90                   	nop
    25e5:	90                   	nop
    25e6:	90                   	nop
    25e7:	90                   	nop
    25e8:	90                   	nop
    25e9:	90                   	nop
    25ea:	90                   	nop
    25eb:	90                   	nop
    25ec:	90                   	nop
    25ed:	90                   	nop
    25ee:	90                   	nop
    25ef:	90                   	nop
    25f0:	90                   	nop
    25f1:	90                   	nop
    25f2:	90                   	nop
    25f3:	90                   	nop
    25f4:	90                   	nop
    25f5:	90                   	nop
    25f6:	90                   	nop
    25f7:	90                   	nop
    25f8:	90                   	nop
    25f9:	90                   	nop
    25fa:	90                   	nop
    25fb:	90                   	nop
    25fc:	90                   	nop
    25fd:	90                   	nop
    25fe:	90                   	nop
    25ff:	90                   	nop
    2600:	90                   	nop
    2601:	90                   	nop
    2602:	90                   	nop
    2603:	90                   	nop
    2604:	90                   	nop
    2605:	90                   	nop
    2606:	90                   	nop
    2607:	90                   	nop
    2608:	90                   	nop
    2609:	90                   	nop
    260a:	90                   	nop
    260b:	90                   	nop
    260c:	90                   	nop
    260d:	90                   	nop
    260e:	90                   	nop
    260f:	90                   	nop
    2610:	90                   	nop
    2611:	90                   	nop
    2612:	90                   	nop
    2613:	90                   	nop
    2614:	90                   	nop
    2615:	90                   	nop
    2616:	90                   	nop
    2617:	90                   	nop
    2618:	90                   	nop
    2619:	90                   	nop
    261a:	90                   	nop
    261b:	90                   	nop
    261c:	90                   	nop
    261d:	90                   	nop
    261e:	90                   	nop
    261f:	90                   	nop
    2620:	90                   	nop
    2621:	90                   	nop
    2622:	90                   	nop
    2623:	90                   	nop
    2624:	90                   	nop
    2625:	90                   	nop
    2626:	90                   	nop
    2627:	90                   	nop
    2628:	90                   	nop
    2629:	90                   	nop
    262a:	90                   	nop
    262b:	90                   	nop
    262c:	90                   	nop
    262d:	90                   	nop
    262e:	90                   	nop
    262f:	90                   	nop
    2630:	90                   	nop
    2631:	90                   	nop
    2632:	90                   	nop
    2633:	90                   	nop
    2634:	90                   	nop
    2635:	90                   	nop
    2636:	90                   	nop
    2637:	90                   	nop
    2638:	90                   	nop
    2639:	90                   	nop
    263a:	90                   	nop
    263b:	90                   	nop
    263c:	90                   	nop
    263d:	90                   	nop
    263e:	90                   	nop
    263f:	90                   	nop
    2640:	90                   	nop
    2641:	90                   	nop
    2642:	90                   	nop
    2643:	90                   	nop
    2644:	90                   	nop
    2645:	90                   	nop
    2646:	90                   	nop
    2647:	90                   	nop
    2648:	90                   	nop
    2649:	90                   	nop
    264a:	90                   	nop
    264b:	90                   	nop
    264c:	90                   	nop
    264d:	90                   	nop
    264e:	90                   	nop
    264f:	90                   	nop
    2650:	90                   	nop
    2651:	90                   	nop
    2652:	90                   	nop
    2653:	90                   	nop
    2654:	90                   	nop
    2655:	90                   	nop
    2656:	90                   	nop
    2657:	90                   	nop
    2658:	90                   	nop
    2659:	90                   	nop
    265a:	90                   	nop
    265b:	90                   	nop
    265c:	90                   	nop
    265d:	90                   	nop
    265e:	90                   	nop
    265f:	90                   	nop
    2660:	90                   	nop
    2661:	90                   	nop
    2662:	90                   	nop
    2663:	90                   	nop
    2664:	90                   	nop
    2665:	90                   	nop
    2666:	90                   	nop
    2667:	90                   	nop
    2668:	90                   	nop
    2669:	90                   	nop
    266a:	90                   	nop
    266b:	90                   	nop
    266c:	90                   	nop
    266d:	90                   	nop
    266e:	90                   	nop
    266f:	90                   	nop
    2670:	90                   	nop
    2671:	90                   	nop
    2672:	90                   	nop
    2673:	90                   	nop
    2674:	90                   	nop
    2675:	90                   	nop
    2676:	90                   	nop
    2677:	90                   	nop
    2678:	90                   	nop
    2679:	90                   	nop
    267a:	90                   	nop
    267b:	90                   	nop
    267c:	90                   	nop
    267d:	90                   	nop
    267e:	90                   	nop
    267f:	90                   	nop
    2680:	90                   	nop
    2681:	90                   	nop
    2682:	90                   	nop
    2683:	90                   	nop
    2684:	90                   	nop
    2685:	90                   	nop
    2686:	90                   	nop
    2687:	90                   	nop
    2688:	90                   	nop
    2689:	90                   	nop
    268a:	90                   	nop
    268b:	90                   	nop
    268c:	90                   	nop
    268d:	90                   	nop
    268e:	90                   	nop
    268f:	90                   	nop
    2690:	90                   	nop
    2691:	90                   	nop
    2692:	90                   	nop
    2693:	90                   	nop
    2694:	90                   	nop
    2695:	90                   	nop
    2696:	90                   	nop
    2697:	90                   	nop
    2698:	90                   	nop
    2699:	90                   	nop
    269a:	90                   	nop
    269b:	90                   	nop
    269c:	90                   	nop
    269d:	90                   	nop
    269e:	90                   	nop
    269f:	90                   	nop
    26a0:	90                   	nop
    26a1:	90                   	nop
    26a2:	90                   	nop
    26a3:	90                   	nop
    26a4:	90                   	nop
    26a5:	90                   	nop
    26a6:	90                   	nop
    26a7:	90                   	nop
    26a8:	90                   	nop
    26a9:	90                   	nop
    26aa:	90                   	nop
    26ab:	90                   	nop
    26ac:	90                   	nop
    26ad:	90                   	nop
    26ae:	90                   	nop
    26af:	90                   	nop
    26b0:	90                   	nop
    26b1:	90                   	nop
    26b2:	90                   	nop
    26b3:	90                   	nop
    26b4:	90                   	nop
    26b5:	90                   	nop
    26b6:	90                   	nop
    26b7:	90                   	nop
    26b8:	90                   	nop
    26b9:	90                   	nop
    26ba:	90                   	nop
    26bb:	90                   	nop
    26bc:	90                   	nop
    26bd:	90                   	nop
    26be:	90                   	nop
    26bf:	90                   	nop
    26c0:	90                   	nop
    26c1:	90                   	nop
    26c2:	90                   	nop
    26c3:	90                   	nop
    26c4:	90                   	nop
    26c5:	90                   	nop
    26c6:	90                   	nop
    26c7:	90                   	nop
    26c8:	90                   	nop
    26c9:	90                   	nop
    26ca:	90                   	nop
    26cb:	90                   	nop
    26cc:	90                   	nop
    26cd:	90                   	nop
    26ce:	90                   	nop
    26cf:	90                   	nop
    26d0:	90                   	nop
    26d1:	90                   	nop
    26d2:	90                   	nop
    26d3:	90                   	nop
    26d4:	90                   	nop
    26d5:	90                   	nop
    26d6:	90                   	nop
    26d7:	90                   	nop
    26d8:	90                   	nop
    26d9:	90                   	nop
    26da:	90                   	nop
    26db:	90                   	nop
    26dc:	90                   	nop
    26dd:	90                   	nop
    26de:	90                   	nop
    26df:	90                   	nop
    26e0:	90                   	nop
    26e1:	90                   	nop
    26e2:	90                   	nop
    26e3:	90                   	nop
    26e4:	90                   	nop
    26e5:	90                   	nop
    26e6:	90                   	nop
    26e7:	90                   	nop
    26e8:	90                   	nop
    26e9:	90                   	nop
    26ea:	90                   	nop
    26eb:	90                   	nop
    26ec:	90                   	nop
    26ed:	90                   	nop
    26ee:	90                   	nop
    26ef:	90                   	nop
    26f0:	90                   	nop
    26f1:	90                   	nop
    26f2:	90                   	nop
    26f3:	90                   	nop
    26f4:	90                   	nop
    26f5:	90                   	nop
    26f6:	90                   	nop
    26f7:	90                   	nop
    26f8:	90                   	nop
    26f9:	90                   	nop
    26fa:	90                   	nop
    26fb:	90                   	nop
    26fc:	90                   	nop
    26fd:	90                   	nop
    26fe:	90                   	nop
    26ff:	90                   	nop
    2700:	90                   	nop
    2701:	90                   	nop
    2702:	90                   	nop
    2703:	90                   	nop
    2704:	90                   	nop
    2705:	90                   	nop
    2706:	90                   	nop
    2707:	90                   	nop
    2708:	90                   	nop
    2709:	90                   	nop
    270a:	90                   	nop
    270b:	90                   	nop
    270c:	90                   	nop
    270d:	90                   	nop
    270e:	90                   	nop
    270f:	90                   	nop
    2710:	90                   	nop
    2711:	90                   	nop
    2712:	90                   	nop
    2713:	90                   	nop
    2714:	90                   	nop
    2715:	90                   	nop
    2716:	90                   	nop
    2717:	90                   	nop
    2718:	90                   	nop
    2719:	90                   	nop
    271a:	90                   	nop
    271b:	90                   	nop
    271c:	90                   	nop
    271d:	90                   	nop
    271e:	90                   	nop
    271f:	90                   	nop
    2720:	90                   	nop
    2721:	90                   	nop
    2722:	90                   	nop
    2723:	90                   	nop
    2724:	90                   	nop
    2725:	90                   	nop
    2726:	90                   	nop
    2727:	90                   	nop
    2728:	90                   	nop
    2729:	90                   	nop
    272a:	90                   	nop
    272b:	90                   	nop
    272c:	90                   	nop
    272d:	90                   	nop
    272e:	90                   	nop
    272f:	90                   	nop
    2730:	90                   	nop
    2731:	90                   	nop
    2732:	90                   	nop
    2733:	90                   	nop
    2734:	90                   	nop
    2735:	90                   	nop
    2736:	90                   	nop
    2737:	90                   	nop
    2738:	90                   	nop
    2739:	90                   	nop
    273a:	90                   	nop
    273b:	90                   	nop
    273c:	90                   	nop
    273d:	90                   	nop
    273e:	90                   	nop
    273f:	90                   	nop
    2740:	90                   	nop
    2741:	90                   	nop
    2742:	90                   	nop
    2743:	90                   	nop
    2744:	90                   	nop
    2745:	90                   	nop
    2746:	90                   	nop
    2747:	90                   	nop
    2748:	90                   	nop
    2749:	90                   	nop
    274a:	90                   	nop
    274b:	90                   	nop
    274c:	90                   	nop
    274d:	90                   	nop
    274e:	90                   	nop
    274f:	90                   	nop
    2750:	90                   	nop
    2751:	90                   	nop
    2752:	90                   	nop
    2753:	90                   	nop
    2754:	90                   	nop
    2755:	90                   	nop
    2756:	90                   	nop
    2757:	90                   	nop
    2758:	90                   	nop
    2759:	90                   	nop
    275a:	90                   	nop
    275b:	90                   	nop
    275c:	90                   	nop
    275d:	90                   	nop
    275e:	90                   	nop
    275f:	90                   	nop
    2760:	90                   	nop
    2761:	90                   	nop
    2762:	90                   	nop
    2763:	90                   	nop
    2764:	90                   	nop
    2765:	90                   	nop
    2766:	90                   	nop
    2767:	90                   	nop
    2768:	90                   	nop
    2769:	90                   	nop
    276a:	90                   	nop
    276b:	90                   	nop
    276c:	90                   	nop
    276d:	90                   	nop
    276e:	90                   	nop
    276f:	90                   	nop
    2770:	90                   	nop
    2771:	90                   	nop
    2772:	90                   	nop
    2773:	90                   	nop
    2774:	90                   	nop
    2775:	90                   	nop
    2776:	90                   	nop
    2777:	90                   	nop
    2778:	90                   	nop
    2779:	90                   	nop
    277a:	90                   	nop
    277b:	90                   	nop
    277c:	90                   	nop
    277d:	90                   	nop
    277e:	90                   	nop
    277f:	90                   	nop
    2780:	90                   	nop
    2781:	90                   	nop
    2782:	90                   	nop
    2783:	90                   	nop
    2784:	90                   	nop
    2785:	90                   	nop
    2786:	90                   	nop
    2787:	90                   	nop
    2788:	90                   	nop
    2789:	90                   	nop
    278a:	90                   	nop
    278b:	90                   	nop
    278c:	90                   	nop
    278d:	90                   	nop
    278e:	90                   	nop
    278f:	90                   	nop
    2790:	90                   	nop
    2791:	90                   	nop
    2792:	90                   	nop
    2793:	90                   	nop
    2794:	90                   	nop
    2795:	90                   	nop
    2796:	90                   	nop
    2797:	90                   	nop
    2798:	90                   	nop
    2799:	90                   	nop
    279a:	90                   	nop
    279b:	90                   	nop
    279c:	90                   	nop
    279d:	90                   	nop
    279e:	90                   	nop
    279f:	90                   	nop
    27a0:	90                   	nop
    27a1:	90                   	nop
    27a2:	90                   	nop
    27a3:	90                   	nop
    27a4:	90                   	nop
    27a5:	90                   	nop
    27a6:	90                   	nop
    27a7:	90                   	nop
    27a8:	90                   	nop
    27a9:	90                   	nop
    27aa:	90                   	nop
    27ab:	90                   	nop
    27ac:	90                   	nop
    27ad:	90                   	nop
    27ae:	90                   	nop
    27af:	90                   	nop
    27b0:	90                   	nop
    27b1:	90                   	nop
    27b2:	90                   	nop
    27b3:	90                   	nop
    27b4:	90                   	nop
    27b5:	90                   	nop
    27b6:	90                   	nop
    27b7:	90                   	nop
    27b8:	90                   	nop
    27b9:	90                   	nop
    27ba:	90                   	nop
    27bb:	90                   	nop
    27bc:	90                   	nop
    27bd:	90                   	nop
    27be:	90                   	nop
    27bf:	90                   	nop
    27c0:	90                   	nop
    27c1:	90                   	nop
    27c2:	90                   	nop
    27c3:	90                   	nop
    27c4:	90                   	nop
    27c5:	90                   	nop
    27c6:	90                   	nop
    27c7:	90                   	nop
    27c8:	90                   	nop
    27c9:	90                   	nop
    27ca:	90                   	nop
    27cb:	90                   	nop
    27cc:	90                   	nop
    27cd:	90                   	nop
    27ce:	90                   	nop
    27cf:	90                   	nop
    27d0:	90                   	nop
    27d1:	90                   	nop
    27d2:	90                   	nop
    27d3:	90                   	nop
    27d4:	90                   	nop
    27d5:	90                   	nop
    27d6:	90                   	nop
    27d7:	90                   	nop
    27d8:	90                   	nop
    27d9:	90                   	nop
    27da:	90                   	nop
    27db:	90                   	nop
    27dc:	90                   	nop
    27dd:	90                   	nop
    27de:	90                   	nop
    27df:	90                   	nop
    27e0:	90                   	nop
    27e1:	90                   	nop
    27e2:	90                   	nop
    27e3:	90                   	nop
    27e4:	90                   	nop
    27e5:	90                   	nop
    27e6:	90                   	nop
    27e7:	90                   	nop
    27e8:	90                   	nop
    27e9:	90                   	nop
    27ea:	90                   	nop
    27eb:	90                   	nop
    27ec:	90                   	nop
    27ed:	90                   	nop
    27ee:	90                   	nop
    27ef:	90                   	nop
    27f0:	90                   	nop
    27f1:	90                   	nop
    27f2:	90                   	nop
    27f3:	90                   	nop
    27f4:	90                   	nop
    27f5:	90                   	nop
    27f6:	90                   	nop
    27f7:	90                   	nop
    27f8:	90                   	nop
    27f9:	90                   	nop
    27fa:	90                   	nop
    27fb:	90                   	nop
    27fc:	90                   	nop
    27fd:	90                   	nop
    27fe:	90                   	nop
    27ff:	90                   	nop
    2800:	90                   	nop
    2801:	90                   	nop
    2802:	90                   	nop
    2803:	90                   	nop
    2804:	90                   	nop
    2805:	90                   	nop
    2806:	90                   	nop
    2807:	90                   	nop
    2808:	90                   	nop
    2809:	90                   	nop
    280a:	90                   	nop
    280b:	90                   	nop
    280c:	90                   	nop
    280d:	90                   	nop
    280e:	90                   	nop
    280f:	90                   	nop
    2810:	90                   	nop
    2811:	90                   	nop
    2812:	90                   	nop
    2813:	90                   	nop
    2814:	90                   	nop
    2815:	90                   	nop
    2816:	90                   	nop
    2817:	90                   	nop
    2818:	90                   	nop
    2819:	90                   	nop
    281a:	90                   	nop
    281b:	90                   	nop
    281c:	90                   	nop
    281d:	90                   	nop
    281e:	90                   	nop
    281f:	90                   	nop
    2820:	90                   	nop
    2821:	90                   	nop
    2822:	90                   	nop
    2823:	90                   	nop
    2824:	90                   	nop
    2825:	90                   	nop
    2826:	90                   	nop
    2827:	90                   	nop
    2828:	90                   	nop
    2829:	90                   	nop
    282a:	90                   	nop
    282b:	90                   	nop
    282c:	90                   	nop
    282d:	90                   	nop
    282e:	90                   	nop
    282f:	90                   	nop
    2830:	90                   	nop
    2831:	90                   	nop
    2832:	90                   	nop
    2833:	90                   	nop
    2834:	90                   	nop
    2835:	90                   	nop
    2836:	90                   	nop
    2837:	90                   	nop
    2838:	90                   	nop
    2839:	90                   	nop
    283a:	90                   	nop
    283b:	90                   	nop
    283c:	90                   	nop
    283d:	90                   	nop
    283e:	90                   	nop
    283f:	90                   	nop
    2840:	90                   	nop
    2841:	90                   	nop
    2842:	90                   	nop
    2843:	90                   	nop
    2844:	90                   	nop
    2845:	90                   	nop
    2846:	90                   	nop
    2847:	90                   	nop
    2848:	90                   	nop
    2849:	90                   	nop
    284a:	90                   	nop
    284b:	90                   	nop
    284c:	90                   	nop
    284d:	90                   	nop
    284e:	90                   	nop
    284f:	90                   	nop
    2850:	90                   	nop
    2851:	90                   	nop
    2852:	90                   	nop
    2853:	90                   	nop
    2854:	90                   	nop
    2855:	90                   	nop
    2856:	90                   	nop
    2857:	90                   	nop
    2858:	90                   	nop
    2859:	90                   	nop
    285a:	90                   	nop
    285b:	90                   	nop
    285c:	90                   	nop
    285d:	90                   	nop
    285e:	90                   	nop
    285f:	90                   	nop
    2860:	90                   	nop
    2861:	90                   	nop
    2862:	90                   	nop
    2863:	90                   	nop
    2864:	90                   	nop
    2865:	90                   	nop
    2866:	90                   	nop
    2867:	90                   	nop
    2868:	90                   	nop
    2869:	90                   	nop
    286a:	90                   	nop
    286b:	90                   	nop
    286c:	90                   	nop
    286d:	90                   	nop
    286e:	90                   	nop
    286f:	90                   	nop
    2870:	90                   	nop
    2871:	90                   	nop
    2872:	90                   	nop
    2873:	90                   	nop
    2874:	90                   	nop
    2875:	90                   	nop
    2876:	90                   	nop
    2877:	90                   	nop
    2878:	90                   	nop
    2879:	90                   	nop
    287a:	90                   	nop
    287b:	90                   	nop
    287c:	90                   	nop
    287d:	90                   	nop
    287e:	90                   	nop
    287f:	90                   	nop
    2880:	90                   	nop
    2881:	90                   	nop
    2882:	90                   	nop
    2883:	90                   	nop
    2884:	90                   	nop
    2885:	90                   	nop
    2886:	90                   	nop
    2887:	90                   	nop
    2888:	90                   	nop
    2889:	90                   	nop
    288a:	90                   	nop
    288b:	90                   	nop
    288c:	90                   	nop
    288d:	90                   	nop
    288e:	90                   	nop
    288f:	90                   	nop
    2890:	90                   	nop
    2891:	90                   	nop
    2892:	90                   	nop
    2893:	90                   	nop
    2894:	90                   	nop
    2895:	90                   	nop
    2896:	90                   	nop
    2897:	90                   	nop
    2898:	90                   	nop
    2899:	90                   	nop
    289a:	90                   	nop
    289b:	90                   	nop
    289c:	90                   	nop
    289d:	90                   	nop
    289e:	90                   	nop
    289f:	90                   	nop
    28a0:	90                   	nop
    28a1:	90                   	nop
    28a2:	90                   	nop
    28a3:	90                   	nop
    28a4:	90                   	nop
    28a5:	90                   	nop
    28a6:	90                   	nop
    28a7:	90                   	nop
    28a8:	90                   	nop
    28a9:	90                   	nop
    28aa:	90                   	nop
    28ab:	90                   	nop
    28ac:	90                   	nop
    28ad:	90                   	nop
    28ae:	90                   	nop
    28af:	90                   	nop
    28b0:	90                   	nop
    28b1:	90                   	nop
    28b2:	90                   	nop
    28b3:	90                   	nop
    28b4:	90                   	nop
    28b5:	90                   	nop
    28b6:	90                   	nop
    28b7:	90                   	nop
    28b8:	90                   	nop
    28b9:	90                   	nop
    28ba:	90                   	nop
    28bb:	90                   	nop
    28bc:	90                   	nop
    28bd:	90                   	nop
    28be:	90                   	nop
    28bf:	90                   	nop
    28c0:	90                   	nop
    28c1:	90                   	nop
    28c2:	90                   	nop
    28c3:	90                   	nop
    28c4:	90                   	nop
    28c5:	90                   	nop
    28c6:	90                   	nop
    28c7:	90                   	nop
    28c8:	90                   	nop
    28c9:	90                   	nop
    28ca:	90                   	nop
    28cb:	90                   	nop
    28cc:	90                   	nop
    28cd:	90                   	nop
    28ce:	90                   	nop
    28cf:	90                   	nop
    28d0:	90                   	nop
    28d1:	90                   	nop
    28d2:	90                   	nop
    28d3:	90                   	nop
    28d4:	90                   	nop
    28d5:	90                   	nop
    28d6:	90                   	nop
    28d7:	90                   	nop
    28d8:	90                   	nop
    28d9:	90                   	nop
    28da:	90                   	nop
    28db:	90                   	nop
    28dc:	90                   	nop
    28dd:	90                   	nop
    28de:	90                   	nop
    28df:	90                   	nop
    28e0:	90                   	nop
    28e1:	90                   	nop
    28e2:	90                   	nop
    28e3:	90                   	nop
    28e4:	90                   	nop
    28e5:	90                   	nop
    28e6:	90                   	nop
    28e7:	90                   	nop
    28e8:	90                   	nop
    28e9:	90                   	nop
    28ea:	90                   	nop
    28eb:	90                   	nop
    28ec:	90                   	nop
    28ed:	90                   	nop
    28ee:	90                   	nop
    28ef:	90                   	nop
    28f0:	90                   	nop
    28f1:	90                   	nop
    28f2:	90                   	nop
    28f3:	90                   	nop
    28f4:	90                   	nop
    28f5:	90                   	nop
    28f6:	90                   	nop
    28f7:	90                   	nop
    28f8:	90                   	nop
    28f9:	90                   	nop
    28fa:	90                   	nop
    28fb:	90                   	nop
    28fc:	90                   	nop
    28fd:	90                   	nop
    28fe:	90                   	nop
    28ff:	90                   	nop
    2900:	90                   	nop
    2901:	90                   	nop
    2902:	90                   	nop
    2903:	90                   	nop
    2904:	90                   	nop
    2905:	90                   	nop
    2906:	90                   	nop
    2907:	90                   	nop
    2908:	90                   	nop
    2909:	90                   	nop
    290a:	90                   	nop
    290b:	90                   	nop
    290c:	90                   	nop
    290d:	90                   	nop
    290e:	90                   	nop
    290f:	90                   	nop
    2910:	90                   	nop
    2911:	90                   	nop
    2912:	90                   	nop
    2913:	90                   	nop
    2914:	90                   	nop
    2915:	90                   	nop
    2916:	90                   	nop
    2917:	90                   	nop
    2918:	90                   	nop
    2919:	90                   	nop
    291a:	90                   	nop
    291b:	90                   	nop
    291c:	90                   	nop
    291d:	90                   	nop
    291e:	90                   	nop
    291f:	90                   	nop
    2920:	90                   	nop
    2921:	90                   	nop
    2922:	90                   	nop
    2923:	90                   	nop
    2924:	90                   	nop
    2925:	90                   	nop
    2926:	90                   	nop
    2927:	90                   	nop
    2928:	90                   	nop
    2929:	90                   	nop
    292a:	90                   	nop
    292b:	90                   	nop
    292c:	90                   	nop
    292d:	90                   	nop
    292e:	90                   	nop
    292f:	90                   	nop
    2930:	90                   	nop
    2931:	90                   	nop
    2932:	90                   	nop
    2933:	90                   	nop
    2934:	90                   	nop
    2935:	90                   	nop
    2936:	90                   	nop
    2937:	90                   	nop
    2938:	90                   	nop
    2939:	90                   	nop
    293a:	90                   	nop
    293b:	90                   	nop
    293c:	90                   	nop
    293d:	90                   	nop
    293e:	90                   	nop
    293f:	90                   	nop
    2940:	90                   	nop
    2941:	90                   	nop
    2942:	90                   	nop
    2943:	90                   	nop
    2944:	90                   	nop
    2945:	90                   	nop
    2946:	90                   	nop
    2947:	90                   	nop
    2948:	90                   	nop
    2949:	90                   	nop
    294a:	90                   	nop
    294b:	90                   	nop
    294c:	90                   	nop
    294d:	90                   	nop
    294e:	90                   	nop
    294f:	90                   	nop
    2950:	90                   	nop
    2951:	90                   	nop
    2952:	90                   	nop
    2953:	90                   	nop
    2954:	90                   	nop
    2955:	90                   	nop
    2956:	90                   	nop
    2957:	90                   	nop
    2958:	90                   	nop
    2959:	90                   	nop
    295a:	90                   	nop
    295b:	90                   	nop
    295c:	90                   	nop
    295d:	90                   	nop
    295e:	90                   	nop
    295f:	90                   	nop
    2960:	90                   	nop
    2961:	90                   	nop
    2962:	90                   	nop
    2963:	90                   	nop
    2964:	90                   	nop
    2965:	90                   	nop
    2966:	90                   	nop
    2967:	90                   	nop
    2968:	90                   	nop
    2969:	90                   	nop
    296a:	90                   	nop
    296b:	90                   	nop
    296c:	90                   	nop
    296d:	90                   	nop
    296e:	90                   	nop
    296f:	90                   	nop
    2970:	90                   	nop
    2971:	90                   	nop
    2972:	90                   	nop
    2973:	90                   	nop
    2974:	90                   	nop
    2975:	90                   	nop
    2976:	90                   	nop
    2977:	90                   	nop
    2978:	90                   	nop
    2979:	90                   	nop
    297a:	90                   	nop
    297b:	90                   	nop
    297c:	90                   	nop
    297d:	90                   	nop
    297e:	90                   	nop
    297f:	90                   	nop
    2980:	90                   	nop
    2981:	90                   	nop
    2982:	90                   	nop
    2983:	90                   	nop
    2984:	90                   	nop
    2985:	90                   	nop
    2986:	90                   	nop
    2987:	90                   	nop
    2988:	90                   	nop
    2989:	90                   	nop
    298a:	90                   	nop
    298b:	90                   	nop
    298c:	90                   	nop
    298d:	90                   	nop
    298e:	90                   	nop
    298f:	90                   	nop
    2990:	90                   	nop
    2991:	90                   	nop
    2992:	90                   	nop
    2993:	90                   	nop
    2994:	90                   	nop
    2995:	90                   	nop
    2996:	90                   	nop
    2997:	90                   	nop
    2998:	90                   	nop
    2999:	90                   	nop
    299a:	90                   	nop
    299b:	90                   	nop
    299c:	90                   	nop
    299d:	90                   	nop
    299e:	90                   	nop
    299f:	90                   	nop
    29a0:	90                   	nop
    29a1:	90                   	nop
    29a2:	90                   	nop
    29a3:	90                   	nop
    29a4:	90                   	nop
    29a5:	90                   	nop
    29a6:	90                   	nop
    29a7:	90                   	nop
    29a8:	90                   	nop
    29a9:	90                   	nop
    29aa:	90                   	nop
    29ab:	90                   	nop
    29ac:	90                   	nop
    29ad:	90                   	nop
    29ae:	90                   	nop
    29af:	90                   	nop
    29b0:	90                   	nop
    29b1:	90                   	nop
    29b2:	90                   	nop
    29b3:	90                   	nop
    29b4:	90                   	nop
    29b5:	90                   	nop
    29b6:	90                   	nop
    29b7:	90                   	nop
    29b8:	90                   	nop
    29b9:	90                   	nop
    29ba:	90                   	nop
    29bb:	90                   	nop
    29bc:	90                   	nop
    29bd:	90                   	nop
    29be:	90                   	nop
    29bf:	90                   	nop
    29c0:	90                   	nop
    29c1:	90                   	nop
    29c2:	90                   	nop
    29c3:	90                   	nop
    29c4:	90                   	nop
    29c5:	90                   	nop
    29c6:	90                   	nop
    29c7:	90                   	nop
    29c8:	90                   	nop
    29c9:	90                   	nop
    29ca:	90                   	nop
    29cb:	90                   	nop
    29cc:	90                   	nop
    29cd:	90                   	nop
    29ce:	90                   	nop
    29cf:	90                   	nop
    29d0:	90                   	nop
    29d1:	90                   	nop
    29d2:	90                   	nop
    29d3:	90                   	nop
    29d4:	90                   	nop
    29d5:	90                   	nop
    29d6:	90                   	nop
    29d7:	90                   	nop
    29d8:	90                   	nop
    29d9:	90                   	nop
    29da:	90                   	nop
    29db:	90                   	nop
    29dc:	90                   	nop
    29dd:	90                   	nop
    29de:	90                   	nop
    29df:	90                   	nop
    29e0:	90                   	nop
    29e1:	90                   	nop
    29e2:	90                   	nop
    29e3:	90                   	nop
    29e4:	90                   	nop
    29e5:	90                   	nop
    29e6:	90                   	nop
    29e7:	90                   	nop
    29e8:	90                   	nop
    29e9:	90                   	nop
    29ea:	90                   	nop
    29eb:	90                   	nop
    29ec:	90                   	nop
    29ed:	90                   	nop
    29ee:	90                   	nop
    29ef:	90                   	nop
    29f0:	90                   	nop
    29f1:	90                   	nop
    29f2:	90                   	nop
    29f3:	90                   	nop
    29f4:	90                   	nop
    29f5:	90                   	nop
    29f6:	90                   	nop
    29f7:	90                   	nop
    29f8:	90                   	nop
    29f9:	90                   	nop
    29fa:	90                   	nop
    29fb:	90                   	nop
    29fc:	90                   	nop
    29fd:	90                   	nop
    29fe:	90                   	nop
    29ff:	90                   	nop
    2a00:	90                   	nop
    2a01:	90                   	nop
    2a02:	90                   	nop
    2a03:	90                   	nop
    2a04:	90                   	nop
    2a05:	90                   	nop
    2a06:	90                   	nop
    2a07:	90                   	nop
    2a08:	90                   	nop
    2a09:	90                   	nop
    2a0a:	90                   	nop
    2a0b:	90                   	nop
    2a0c:	90                   	nop
    2a0d:	90                   	nop
    2a0e:	90                   	nop
    2a0f:	90                   	nop
    2a10:	90                   	nop
    2a11:	90                   	nop
    2a12:	90                   	nop
    2a13:	90                   	nop
    2a14:	90                   	nop
    2a15:	90                   	nop
    2a16:	90                   	nop
    2a17:	90                   	nop
    2a18:	90                   	nop
    2a19:	90                   	nop
    2a1a:	90                   	nop
    2a1b:	90                   	nop
    2a1c:	90                   	nop
    2a1d:	90                   	nop
    2a1e:	90                   	nop
    2a1f:	90                   	nop
    2a20:	90                   	nop
    2a21:	90                   	nop
    2a22:	90                   	nop
    2a23:	90                   	nop
    2a24:	90                   	nop
    2a25:	90                   	nop
    2a26:	90                   	nop
    2a27:	90                   	nop
    2a28:	90                   	nop
    2a29:	90                   	nop
    2a2a:	90                   	nop
    2a2b:	90                   	nop
    2a2c:	90                   	nop
    2a2d:	90                   	nop
    2a2e:	90                   	nop
    2a2f:	90                   	nop
    2a30:	90                   	nop
    2a31:	90                   	nop
    2a32:	90                   	nop
    2a33:	90                   	nop
    2a34:	90                   	nop
    2a35:	90                   	nop
    2a36:	90                   	nop
    2a37:	90                   	nop
    2a38:	90                   	nop
    2a39:	90                   	nop
    2a3a:	90                   	nop
    2a3b:	90                   	nop
    2a3c:	90                   	nop
    2a3d:	90                   	nop
    2a3e:	90                   	nop
    2a3f:	90                   	nop
    2a40:	90                   	nop
    2a41:	90                   	nop
    2a42:	90                   	nop
    2a43:	90                   	nop
    2a44:	90                   	nop
    2a45:	90                   	nop
    2a46:	90                   	nop
    2a47:	90                   	nop
    2a48:	90                   	nop
    2a49:	90                   	nop
    2a4a:	90                   	nop
    2a4b:	90                   	nop
    2a4c:	90                   	nop
    2a4d:	90                   	nop
    2a4e:	90                   	nop
    2a4f:	90                   	nop
    2a50:	90                   	nop
    2a51:	90                   	nop
    2a52:	90                   	nop
    2a53:	90                   	nop
    2a54:	90                   	nop
    2a55:	90                   	nop
    2a56:	90                   	nop
    2a57:	90                   	nop
    2a58:	90                   	nop
    2a59:	90                   	nop
    2a5a:	90                   	nop
    2a5b:	90                   	nop
    2a5c:	90                   	nop
    2a5d:	90                   	nop
    2a5e:	90                   	nop
    2a5f:	90                   	nop
    2a60:	90                   	nop
    2a61:	90                   	nop
    2a62:	90                   	nop
    2a63:	90                   	nop
    2a64:	90                   	nop
    2a65:	90                   	nop
    2a66:	90                   	nop
    2a67:	90                   	nop
    2a68:	90                   	nop
    2a69:	90                   	nop
    2a6a:	90                   	nop
    2a6b:	90                   	nop
    2a6c:	90                   	nop
    2a6d:	90                   	nop
    2a6e:	90                   	nop
    2a6f:	90                   	nop
    2a70:	90                   	nop
    2a71:	90                   	nop
    2a72:	90                   	nop
    2a73:	90                   	nop
    2a74:	90                   	nop
    2a75:	90                   	nop
    2a76:	90                   	nop
    2a77:	90                   	nop
    2a78:	90                   	nop
    2a79:	90                   	nop
    2a7a:	90                   	nop
    2a7b:	90                   	nop
    2a7c:	90                   	nop
    2a7d:	90                   	nop
    2a7e:	90                   	nop
    2a7f:	90                   	nop
    2a80:	90                   	nop
    2a81:	90                   	nop
    2a82:	90                   	nop
    2a83:	90                   	nop
    2a84:	90                   	nop
    2a85:	90                   	nop
    2a86:	90                   	nop
    2a87:	90                   	nop
    2a88:	90                   	nop
    2a89:	90                   	nop
    2a8a:	90                   	nop
    2a8b:	90                   	nop
    2a8c:	90                   	nop
    2a8d:	90                   	nop
    2a8e:	90                   	nop
    2a8f:	90                   	nop
    2a90:	90                   	nop
    2a91:	90                   	nop
    2a92:	90                   	nop
    2a93:	90                   	nop
    2a94:	90                   	nop
    2a95:	90                   	nop
    2a96:	90                   	nop
    2a97:	90                   	nop
    2a98:	90                   	nop
    2a99:	90                   	nop
    2a9a:	90                   	nop
    2a9b:	90                   	nop
    2a9c:	90                   	nop
    2a9d:	90                   	nop
    2a9e:	90                   	nop
    2a9f:	90                   	nop
    2aa0:	90                   	nop
    2aa1:	90                   	nop
    2aa2:	90                   	nop
    2aa3:	90                   	nop
    2aa4:	90                   	nop
    2aa5:	90                   	nop
    2aa6:	90                   	nop
    2aa7:	90                   	nop
    2aa8:	90                   	nop
    2aa9:	90                   	nop
    2aaa:	90                   	nop
    2aab:	90                   	nop
    2aac:	90                   	nop
    2aad:	90                   	nop
    2aae:	90                   	nop
    2aaf:	90                   	nop
    2ab0:	90                   	nop
    2ab1:	90                   	nop
    2ab2:	90                   	nop
    2ab3:	90                   	nop
    2ab4:	90                   	nop
    2ab5:	90                   	nop
    2ab6:	90                   	nop
    2ab7:	90                   	nop
    2ab8:	90                   	nop
    2ab9:	90                   	nop
    2aba:	90                   	nop
    2abb:	90                   	nop
    2abc:	90                   	nop
    2abd:	90                   	nop
    2abe:	90                   	nop
    2abf:	90                   	nop
    2ac0:	90                   	nop
    2ac1:	90                   	nop
    2ac2:	90                   	nop
    2ac3:	90                   	nop
    2ac4:	90                   	nop
    2ac5:	90                   	nop
    2ac6:	90                   	nop
    2ac7:	90                   	nop
    2ac8:	90                   	nop
    2ac9:	90                   	nop
    2aca:	90                   	nop
    2acb:	90                   	nop
    2acc:	90                   	nop
    2acd:	90                   	nop
    2ace:	90                   	nop
    2acf:	90                   	nop
    2ad0:	90                   	nop
    2ad1:	90                   	nop
    2ad2:	90                   	nop
    2ad3:	90                   	nop
    2ad4:	90                   	nop
    2ad5:	90                   	nop
    2ad6:	90                   	nop
    2ad7:	90                   	nop
    2ad8:	90                   	nop
    2ad9:	90                   	nop
    2ada:	90                   	nop
    2adb:	90                   	nop
    2adc:	90                   	nop
    2add:	90                   	nop
    2ade:	90                   	nop
    2adf:	90                   	nop
    2ae0:	90                   	nop
    2ae1:	90                   	nop
    2ae2:	90                   	nop
    2ae3:	90                   	nop
    2ae4:	90                   	nop
    2ae5:	90                   	nop
    2ae6:	90                   	nop
    2ae7:	90                   	nop
    2ae8:	90                   	nop
    2ae9:	90                   	nop
    2aea:	90                   	nop
    2aeb:	90                   	nop
    2aec:	90                   	nop
    2aed:	90                   	nop
    2aee:	90                   	nop
    2aef:	90                   	nop
    2af0:	90                   	nop
    2af1:	90                   	nop
    2af2:	90                   	nop
    2af3:	90                   	nop
    2af4:	90                   	nop
    2af5:	90                   	nop
    2af6:	90                   	nop
    2af7:	90                   	nop
    2af8:	90                   	nop
    2af9:	90                   	nop
    2afa:	90                   	nop
    2afb:	90                   	nop
    2afc:	90                   	nop
    2afd:	90                   	nop
    2afe:	90                   	nop
    2aff:	90                   	nop
    2b00:	90                   	nop
    2b01:	90                   	nop
    2b02:	90                   	nop
    2b03:	90                   	nop
    2b04:	90                   	nop
    2b05:	90                   	nop
    2b06:	90                   	nop
    2b07:	90                   	nop
    2b08:	90                   	nop
    2b09:	90                   	nop
    2b0a:	90                   	nop
    2b0b:	90                   	nop
    2b0c:	90                   	nop
    2b0d:	90                   	nop
    2b0e:	90                   	nop
    2b0f:	90                   	nop
    2b10:	90                   	nop
    2b11:	90                   	nop
    2b12:	90                   	nop
    2b13:	90                   	nop
    2b14:	90                   	nop
    2b15:	90                   	nop
    2b16:	90                   	nop
    2b17:	90                   	nop
    2b18:	90                   	nop
    2b19:	90                   	nop
    2b1a:	90                   	nop
    2b1b:	90                   	nop
    2b1c:	90                   	nop
    2b1d:	90                   	nop
    2b1e:	90                   	nop
    2b1f:	90                   	nop
    2b20:	90                   	nop
    2b21:	90                   	nop
    2b22:	90                   	nop
    2b23:	90                   	nop
    2b24:	90                   	nop
    2b25:	90                   	nop
    2b26:	90                   	nop
    2b27:	90                   	nop
    2b28:	90                   	nop
    2b29:	90                   	nop
    2b2a:	90                   	nop
    2b2b:	90                   	nop
    2b2c:	90                   	nop
    2b2d:	90                   	nop
    2b2e:	90                   	nop
    2b2f:	90                   	nop
    2b30:	90                   	nop
    2b31:	90                   	nop
    2b32:	90                   	nop
    2b33:	90                   	nop
    2b34:	90                   	nop
    2b35:	90                   	nop
    2b36:	90                   	nop
    2b37:	90                   	nop
    2b38:	90                   	nop
    2b39:	90                   	nop
    2b3a:	90                   	nop
    2b3b:	90                   	nop
    2b3c:	90                   	nop
    2b3d:	90                   	nop
    2b3e:	90                   	nop
    2b3f:	90                   	nop
    2b40:	90                   	nop
    2b41:	90                   	nop
    2b42:	90                   	nop
    2b43:	90                   	nop
    2b44:	90                   	nop
    2b45:	90                   	nop
    2b46:	90                   	nop
    2b47:	90                   	nop
    2b48:	90                   	nop
    2b49:	90                   	nop
    2b4a:	90                   	nop
    2b4b:	90                   	nop
    2b4c:	90                   	nop
    2b4d:	90                   	nop
    2b4e:	90                   	nop
    2b4f:	90                   	nop
    2b50:	90                   	nop
    2b51:	90                   	nop
    2b52:	90                   	nop
    2b53:	90                   	nop
    2b54:	90                   	nop
    2b55:	90                   	nop
    2b56:	90                   	nop
    2b57:	90                   	nop
    2b58:	90                   	nop
    2b59:	90                   	nop
    2b5a:	90                   	nop
    2b5b:	90                   	nop
    2b5c:	90                   	nop
    2b5d:	90                   	nop
    2b5e:	90                   	nop
    2b5f:	90                   	nop
    2b60:	90                   	nop
    2b61:	90                   	nop
    2b62:	90                   	nop
    2b63:	90                   	nop
    2b64:	90                   	nop
    2b65:	90                   	nop
    2b66:	90                   	nop
    2b67:	90                   	nop
    2b68:	90                   	nop
    2b69:	90                   	nop
    2b6a:	90                   	nop
    2b6b:	90                   	nop
    2b6c:	90                   	nop
    2b6d:	90                   	nop
    2b6e:	90                   	nop
    2b6f:	90                   	nop
    2b70:	90                   	nop
    2b71:	90                   	nop
    2b72:	90                   	nop
    2b73:	90                   	nop
    2b74:	90                   	nop
    2b75:	90                   	nop
    2b76:	90                   	nop
    2b77:	90                   	nop
    2b78:	90                   	nop
    2b79:	90                   	nop
    2b7a:	90                   	nop
    2b7b:	90                   	nop
    2b7c:	90                   	nop
    2b7d:	90                   	nop
    2b7e:	90                   	nop
    2b7f:	90                   	nop
    2b80:	90                   	nop
    2b81:	90                   	nop
    2b82:	90                   	nop
    2b83:	90                   	nop
    2b84:	90                   	nop
    2b85:	90                   	nop
    2b86:	90                   	nop
    2b87:	90                   	nop
    2b88:	90                   	nop
    2b89:	90                   	nop
    2b8a:	90                   	nop
    2b8b:	90                   	nop
    2b8c:	90                   	nop
    2b8d:	90                   	nop
    2b8e:	90                   	nop
    2b8f:	90                   	nop
    2b90:	90                   	nop
    2b91:	90                   	nop
    2b92:	90                   	nop
    2b93:	90                   	nop
    2b94:	90                   	nop
    2b95:	90                   	nop
    2b96:	90                   	nop
    2b97:	90                   	nop
    2b98:	90                   	nop
    2b99:	90                   	nop
    2b9a:	90                   	nop
    2b9b:	90                   	nop
    2b9c:	90                   	nop
    2b9d:	90                   	nop
    2b9e:	90                   	nop
    2b9f:	90                   	nop
    2ba0:	90                   	nop
    2ba1:	90                   	nop
    2ba2:	90                   	nop
    2ba3:	90                   	nop
    2ba4:	90                   	nop
    2ba5:	90                   	nop
    2ba6:	90                   	nop
    2ba7:	90                   	nop
    2ba8:	90                   	nop
    2ba9:	90                   	nop
    2baa:	90                   	nop
    2bab:	90                   	nop
    2bac:	90                   	nop
    2bad:	90                   	nop
    2bae:	90                   	nop
    2baf:	90                   	nop
    2bb0:	90                   	nop
    2bb1:	90                   	nop
    2bb2:	90                   	nop
    2bb3:	90                   	nop
    2bb4:	90                   	nop
    2bb5:	90                   	nop
    2bb6:	90                   	nop
    2bb7:	90                   	nop
    2bb8:	90                   	nop
    2bb9:	90                   	nop
    2bba:	90                   	nop
    2bbb:	90                   	nop
    2bbc:	90                   	nop
    2bbd:	90                   	nop
    2bbe:	90                   	nop
    2bbf:	90                   	nop
    2bc0:	90                   	nop
    2bc1:	90                   	nop
    2bc2:	90                   	nop
    2bc3:	90                   	nop
    2bc4:	90                   	nop
    2bc5:	90                   	nop
    2bc6:	90                   	nop
    2bc7:	90                   	nop
    2bc8:	90                   	nop
    2bc9:	90                   	nop
    2bca:	90                   	nop
    2bcb:	90                   	nop
    2bcc:	90                   	nop
    2bcd:	90                   	nop
    2bce:	90                   	nop
    2bcf:	90                   	nop
    2bd0:	90                   	nop
    2bd1:	90                   	nop
    2bd2:	90                   	nop
    2bd3:	90                   	nop
    2bd4:	90                   	nop
    2bd5:	90                   	nop
    2bd6:	90                   	nop
    2bd7:	90                   	nop
    2bd8:	90                   	nop
    2bd9:	90                   	nop
    2bda:	90                   	nop
    2bdb:	90                   	nop
    2bdc:	90                   	nop
    2bdd:	90                   	nop
    2bde:	90                   	nop
    2bdf:	90                   	nop
    2be0:	90                   	nop
    2be1:	90                   	nop
    2be2:	90                   	nop
    2be3:	90                   	nop
    2be4:	90                   	nop
    2be5:	90                   	nop
    2be6:	90                   	nop
    2be7:	90                   	nop
    2be8:	90                   	nop
    2be9:	90                   	nop
    2bea:	90                   	nop
    2beb:	90                   	nop
    2bec:	90                   	nop
    2bed:	90                   	nop
    2bee:	90                   	nop
    2bef:	90                   	nop
    2bf0:	90                   	nop
    2bf1:	90                   	nop
    2bf2:	90                   	nop
    2bf3:	90                   	nop
    2bf4:	90                   	nop
    2bf5:	90                   	nop
    2bf6:	90                   	nop
    2bf7:	90                   	nop
    2bf8:	90                   	nop
    2bf9:	90                   	nop
    2bfa:	90                   	nop
    2bfb:	90                   	nop
    2bfc:	90                   	nop
    2bfd:	90                   	nop
    2bfe:	90                   	nop
    2bff:	90                   	nop
    2c00:	90                   	nop
    2c01:	90                   	nop
    2c02:	90                   	nop
    2c03:	90                   	nop
    2c04:	90                   	nop
    2c05:	90                   	nop
    2c06:	90                   	nop
    2c07:	90                   	nop
    2c08:	90                   	nop
    2c09:	90                   	nop
    2c0a:	90                   	nop
    2c0b:	90                   	nop
    2c0c:	90                   	nop
    2c0d:	90                   	nop
    2c0e:	90                   	nop
    2c0f:	90                   	nop
    2c10:	90                   	nop
    2c11:	90                   	nop
    2c12:	90                   	nop
    2c13:	90                   	nop
    2c14:	90                   	nop
    2c15:	90                   	nop
    2c16:	90                   	nop
    2c17:	90                   	nop
    2c18:	90                   	nop
    2c19:	90                   	nop
    2c1a:	90                   	nop
    2c1b:	90                   	nop
    2c1c:	90                   	nop
    2c1d:	90                   	nop
    2c1e:	90                   	nop
    2c1f:	90                   	nop
    2c20:	90                   	nop
    2c21:	90                   	nop
    2c22:	90                   	nop
    2c23:	90                   	nop
    2c24:	90                   	nop
    2c25:	90                   	nop
    2c26:	90                   	nop
    2c27:	90                   	nop
    2c28:	90                   	nop
    2c29:	90                   	nop
    2c2a:	90                   	nop
    2c2b:	90                   	nop
    2c2c:	90                   	nop
    2c2d:	90                   	nop
    2c2e:	90                   	nop
    2c2f:	90                   	nop
    2c30:	90                   	nop
    2c31:	90                   	nop
    2c32:	90                   	nop
    2c33:	90                   	nop
    2c34:	90                   	nop
    2c35:	90                   	nop
    2c36:	90                   	nop
    2c37:	90                   	nop
    2c38:	90                   	nop
    2c39:	90                   	nop
    2c3a:	90                   	nop
    2c3b:	90                   	nop
    2c3c:	90                   	nop
    2c3d:	90                   	nop
    2c3e:	90                   	nop
    2c3f:	90                   	nop
    2c40:	90                   	nop
    2c41:	90                   	nop
    2c42:	90                   	nop
    2c43:	90                   	nop
    2c44:	90                   	nop
    2c45:	90                   	nop
    2c46:	90                   	nop
    2c47:	90                   	nop
    2c48:	90                   	nop
    2c49:	90                   	nop
    2c4a:	90                   	nop
    2c4b:	90                   	nop
    2c4c:	90                   	nop
    2c4d:	90                   	nop
    2c4e:	90                   	nop
    2c4f:	90                   	nop
    2c50:	90                   	nop
    2c51:	90                   	nop
    2c52:	90                   	nop
    2c53:	90                   	nop
    2c54:	90                   	nop
    2c55:	90                   	nop
    2c56:	90                   	nop
    2c57:	90                   	nop
    2c58:	90                   	nop
    2c59:	90                   	nop
    2c5a:	90                   	nop
    2c5b:	90                   	nop
    2c5c:	90                   	nop
    2c5d:	90                   	nop
    2c5e:	90                   	nop
    2c5f:	90                   	nop
    2c60:	90                   	nop
    2c61:	90                   	nop
    2c62:	90                   	nop
    2c63:	90                   	nop
    2c64:	90                   	nop
    2c65:	90                   	nop
    2c66:	90                   	nop
    2c67:	90                   	nop
    2c68:	90                   	nop
    2c69:	90                   	nop
    2c6a:	90                   	nop
    2c6b:	90                   	nop
    2c6c:	90                   	nop
    2c6d:	90                   	nop
    2c6e:	90                   	nop
    2c6f:	90                   	nop
    2c70:	90                   	nop
    2c71:	90                   	nop
    2c72:	90                   	nop
    2c73:	90                   	nop
    2c74:	90                   	nop
    2c75:	90                   	nop
    2c76:	90                   	nop
    2c77:	90                   	nop
    2c78:	90                   	nop
    2c79:	90                   	nop
    2c7a:	90                   	nop
    2c7b:	90                   	nop
    2c7c:	90                   	nop
    2c7d:	90                   	nop
    2c7e:	90                   	nop
    2c7f:	90                   	nop
    2c80:	90                   	nop
    2c81:	90                   	nop
    2c82:	90                   	nop
    2c83:	90                   	nop
    2c84:	90                   	nop
    2c85:	90                   	nop
    2c86:	90                   	nop
    2c87:	90                   	nop
    2c88:	90                   	nop
    2c89:	90                   	nop
    2c8a:	90                   	nop
    2c8b:	90                   	nop
    2c8c:	90                   	nop
    2c8d:	90                   	nop
    2c8e:	90                   	nop
    2c8f:	90                   	nop
    2c90:	90                   	nop
    2c91:	90                   	nop
    2c92:	90                   	nop
    2c93:	90                   	nop
    2c94:	90                   	nop
    2c95:	90                   	nop
    2c96:	90                   	nop
    2c97:	90                   	nop
    2c98:	90                   	nop
    2c99:	90                   	nop
    2c9a:	90                   	nop
    2c9b:	90                   	nop
    2c9c:	90                   	nop
    2c9d:	90                   	nop
    2c9e:	90                   	nop
    2c9f:	90                   	nop
    2ca0:	90                   	nop
    2ca1:	90                   	nop
    2ca2:	90                   	nop
    2ca3:	90                   	nop
    2ca4:	90                   	nop
    2ca5:	90                   	nop
    2ca6:	90                   	nop
    2ca7:	90                   	nop
    2ca8:	90                   	nop
    2ca9:	90                   	nop
    2caa:	90                   	nop
    2cab:	90                   	nop
    2cac:	90                   	nop
    2cad:	90                   	nop
    2cae:	90                   	nop
    2caf:	90                   	nop
    2cb0:	90                   	nop
    2cb1:	90                   	nop
    2cb2:	90                   	nop
    2cb3:	90                   	nop
    2cb4:	90                   	nop
    2cb5:	90                   	nop
    2cb6:	90                   	nop
    2cb7:	90                   	nop
    2cb8:	90                   	nop
    2cb9:	90                   	nop
    2cba:	90                   	nop
    2cbb:	90                   	nop
    2cbc:	90                   	nop
    2cbd:	90                   	nop
    2cbe:	90                   	nop
    2cbf:	90                   	nop
    2cc0:	90                   	nop
    2cc1:	90                   	nop
    2cc2:	90                   	nop
    2cc3:	90                   	nop
    2cc4:	90                   	nop
    2cc5:	90                   	nop
    2cc6:	90                   	nop
    2cc7:	90                   	nop
    2cc8:	90                   	nop
    2cc9:	90                   	nop
    2cca:	90                   	nop
    2ccb:	90                   	nop
    2ccc:	90                   	nop
    2ccd:	90                   	nop
    2cce:	90                   	nop
    2ccf:	90                   	nop
    2cd0:	90                   	nop
    2cd1:	90                   	nop
    2cd2:	90                   	nop
    2cd3:	90                   	nop
    2cd4:	90                   	nop
    2cd5:	90                   	nop
    2cd6:	90                   	nop
    2cd7:	90                   	nop
    2cd8:	90                   	nop
    2cd9:	90                   	nop
    2cda:	90                   	nop
    2cdb:	90                   	nop
    2cdc:	90                   	nop
    2cdd:	90                   	nop
    2cde:	90                   	nop
    2cdf:	90                   	nop
    2ce0:	90                   	nop
    2ce1:	90                   	nop
    2ce2:	90                   	nop
    2ce3:	90                   	nop
    2ce4:	90                   	nop
    2ce5:	90                   	nop
    2ce6:	90                   	nop
    2ce7:	90                   	nop
    2ce8:	90                   	nop
    2ce9:	90                   	nop
    2cea:	90                   	nop
    2ceb:	90                   	nop
    2cec:	90                   	nop
    2ced:	90                   	nop
    2cee:	90                   	nop
    2cef:	90                   	nop
    2cf0:	90                   	nop
    2cf1:	90                   	nop
    2cf2:	90                   	nop
    2cf3:	90                   	nop
    2cf4:	90                   	nop
    2cf5:	90                   	nop
    2cf6:	90                   	nop
    2cf7:	90                   	nop
    2cf8:	90                   	nop
    2cf9:	90                   	nop
    2cfa:	90                   	nop
    2cfb:	90                   	nop
    2cfc:	90                   	nop
    2cfd:	90                   	nop
    2cfe:	90                   	nop
    2cff:	90                   	nop
    2d00:	90                   	nop
    2d01:	90                   	nop
    2d02:	90                   	nop
    2d03:	90                   	nop
    2d04:	90                   	nop
    2d05:	90                   	nop
    2d06:	90                   	nop
    2d07:	90                   	nop
    2d08:	90                   	nop
    2d09:	90                   	nop
    2d0a:	90                   	nop
    2d0b:	90                   	nop
    2d0c:	90                   	nop
    2d0d:	90                   	nop
    2d0e:	90                   	nop
    2d0f:	90                   	nop
    2d10:	90                   	nop
    2d11:	90                   	nop
    2d12:	90                   	nop
    2d13:	90                   	nop
    2d14:	90                   	nop
    2d15:	90                   	nop
    2d16:	90                   	nop
    2d17:	90                   	nop
    2d18:	90                   	nop
    2d19:	90                   	nop
    2d1a:	90                   	nop
    2d1b:	90                   	nop
    2d1c:	90                   	nop
    2d1d:	90                   	nop
    2d1e:	90                   	nop
    2d1f:	90                   	nop
    2d20:	90                   	nop
    2d21:	90                   	nop
    2d22:	90                   	nop
    2d23:	90                   	nop
    2d24:	90                   	nop
    2d25:	90                   	nop
    2d26:	90                   	nop
    2d27:	90                   	nop
    2d28:	90                   	nop
    2d29:	90                   	nop
    2d2a:	90                   	nop
    2d2b:	90                   	nop
    2d2c:	90                   	nop
    2d2d:	90                   	nop
    2d2e:	90                   	nop
    2d2f:	90                   	nop
    2d30:	90                   	nop
    2d31:	90                   	nop
    2d32:	90                   	nop
    2d33:	90                   	nop
    2d34:	90                   	nop
    2d35:	90                   	nop
    2d36:	90                   	nop
    2d37:	90                   	nop
    2d38:	90                   	nop
    2d39:	90                   	nop
    2d3a:	90                   	nop
    2d3b:	90                   	nop
    2d3c:	90                   	nop
    2d3d:	90                   	nop
    2d3e:	90                   	nop
    2d3f:	90                   	nop
    2d40:	90                   	nop
    2d41:	90                   	nop
    2d42:	90                   	nop
    2d43:	90                   	nop
    2d44:	90                   	nop
    2d45:	90                   	nop
    2d46:	90                   	nop
    2d47:	90                   	nop
    2d48:	90                   	nop
    2d49:	90                   	nop
    2d4a:	90                   	nop
    2d4b:	90                   	nop
    2d4c:	90                   	nop
    2d4d:	90                   	nop
    2d4e:	90                   	nop
    2d4f:	90                   	nop
    2d50:	90                   	nop
    2d51:	90                   	nop
    2d52:	90                   	nop
    2d53:	90                   	nop
    2d54:	90                   	nop
    2d55:	90                   	nop
    2d56:	90                   	nop
    2d57:	90                   	nop
    2d58:	90                   	nop
    2d59:	90                   	nop
    2d5a:	90                   	nop
    2d5b:	90                   	nop
    2d5c:	90                   	nop
    2d5d:	90                   	nop
    2d5e:	90                   	nop
    2d5f:	90                   	nop
    2d60:	90                   	nop
    2d61:	90                   	nop
    2d62:	90                   	nop
    2d63:	90                   	nop
    2d64:	90                   	nop
    2d65:	90                   	nop
    2d66:	90                   	nop
    2d67:	90                   	nop
    2d68:	90                   	nop
    2d69:	90                   	nop
    2d6a:	90                   	nop
    2d6b:	90                   	nop
    2d6c:	90                   	nop
    2d6d:	90                   	nop
    2d6e:	90                   	nop
    2d6f:	90                   	nop
    2d70:	90                   	nop
    2d71:	90                   	nop
    2d72:	90                   	nop
    2d73:	90                   	nop
    2d74:	90                   	nop
    2d75:	90                   	nop
    2d76:	90                   	nop
    2d77:	90                   	nop
    2d78:	90                   	nop
    2d79:	90                   	nop
    2d7a:	90                   	nop
    2d7b:	90                   	nop
    2d7c:	90                   	nop
    2d7d:	90                   	nop
    2d7e:	90                   	nop
    2d7f:	90                   	nop
    2d80:	90                   	nop
    2d81:	90                   	nop
    2d82:	90                   	nop
    2d83:	90                   	nop
    2d84:	90                   	nop
    2d85:	90                   	nop
    2d86:	90                   	nop
    2d87:	90                   	nop
    2d88:	90                   	nop
    2d89:	90                   	nop
    2d8a:	90                   	nop
    2d8b:	90                   	nop
    2d8c:	90                   	nop
    2d8d:	90                   	nop
    2d8e:	90                   	nop
    2d8f:	90                   	nop
    2d90:	90                   	nop
    2d91:	90                   	nop
    2d92:	90                   	nop
    2d93:	90                   	nop
    2d94:	90                   	nop
    2d95:	90                   	nop
    2d96:	90                   	nop
    2d97:	90                   	nop
    2d98:	90                   	nop
    2d99:	90                   	nop
    2d9a:	90                   	nop
    2d9b:	90                   	nop
    2d9c:	90                   	nop
    2d9d:	90                   	nop
    2d9e:	90                   	nop
    2d9f:	90                   	nop
    2da0:	90                   	nop
    2da1:	90                   	nop
    2da2:	90                   	nop
    2da3:	90                   	nop
    2da4:	90                   	nop
    2da5:	90                   	nop
    2da6:	90                   	nop
    2da7:	90                   	nop
    2da8:	90                   	nop
    2da9:	90                   	nop
    2daa:	90                   	nop
    2dab:	90                   	nop
    2dac:	90                   	nop
    2dad:	90                   	nop
    2dae:	90                   	nop
    2daf:	90                   	nop
    2db0:	90                   	nop
    2db1:	90                   	nop
    2db2:	90                   	nop
    2db3:	90                   	nop
    2db4:	90                   	nop
    2db5:	90                   	nop
    2db6:	90                   	nop
    2db7:	90                   	nop
    2db8:	90                   	nop
    2db9:	90                   	nop
    2dba:	90                   	nop
    2dbb:	90                   	nop
    2dbc:	90                   	nop
    2dbd:	90                   	nop
    2dbe:	90                   	nop
    2dbf:	90                   	nop
    2dc0:	90                   	nop
    2dc1:	90                   	nop
    2dc2:	90                   	nop
    2dc3:	90                   	nop
    2dc4:	90                   	nop
    2dc5:	90                   	nop
    2dc6:	90                   	nop
    2dc7:	90                   	nop
    2dc8:	90                   	nop
    2dc9:	90                   	nop
    2dca:	90                   	nop
    2dcb:	90                   	nop
    2dcc:	90                   	nop
    2dcd:	90                   	nop
    2dce:	90                   	nop
    2dcf:	90                   	nop
    2dd0:	90                   	nop
    2dd1:	90                   	nop
    2dd2:	90                   	nop
    2dd3:	90                   	nop
    2dd4:	90                   	nop
    2dd5:	90                   	nop
    2dd6:	90                   	nop
    2dd7:	90                   	nop
    2dd8:	90                   	nop
    2dd9:	90                   	nop
    2dda:	90                   	nop
    2ddb:	90                   	nop
    2ddc:	90                   	nop
    2ddd:	90                   	nop
    2dde:	90                   	nop
    2ddf:	90                   	nop
    2de0:	90                   	nop
    2de1:	90                   	nop
    2de2:	90                   	nop
    2de3:	90                   	nop
    2de4:	90                   	nop
    2de5:	90                   	nop
    2de6:	90                   	nop
    2de7:	90                   	nop
    2de8:	90                   	nop
    2de9:	90                   	nop
    2dea:	90                   	nop
    2deb:	90                   	nop
    2dec:	90                   	nop
    2ded:	90                   	nop
    2dee:	90                   	nop
    2def:	90                   	nop
    2df0:	90                   	nop
    2df1:	90                   	nop
    2df2:	90                   	nop
    2df3:	90                   	nop
    2df4:	90                   	nop
    2df5:	90                   	nop
    2df6:	90                   	nop
    2df7:	90                   	nop
    2df8:	90                   	nop
    2df9:	90                   	nop
    2dfa:	90                   	nop
    2dfb:	90                   	nop
    2dfc:	90                   	nop
    2dfd:	90                   	nop
    2dfe:	90                   	nop
    2dff:	90                   	nop
    2e00:	90                   	nop
    2e01:	90                   	nop
    2e02:	90                   	nop
    2e03:	90                   	nop
    2e04:	90                   	nop
    2e05:	90                   	nop
    2e06:	90                   	nop
    2e07:	90                   	nop
    2e08:	90                   	nop
    2e09:	90                   	nop
    2e0a:	90                   	nop
    2e0b:	90                   	nop
    2e0c:	90                   	nop
    2e0d:	90                   	nop
    2e0e:	90                   	nop
    2e0f:	90                   	nop
    2e10:	90                   	nop
    2e11:	90                   	nop
    2e12:	90                   	nop
    2e13:	90                   	nop
    2e14:	90                   	nop
    2e15:	90                   	nop
    2e16:	90                   	nop
    2e17:	90                   	nop
    2e18:	90                   	nop
    2e19:	90                   	nop
    2e1a:	90                   	nop
    2e1b:	90                   	nop
    2e1c:	90                   	nop
    2e1d:	90                   	nop
    2e1e:	90                   	nop
    2e1f:	90                   	nop
    2e20:	90                   	nop
    2e21:	90                   	nop
    2e22:	90                   	nop
    2e23:	90                   	nop
    2e24:	90                   	nop
    2e25:	90                   	nop
    2e26:	90                   	nop
    2e27:	90                   	nop
    2e28:	90                   	nop
    2e29:	90                   	nop
    2e2a:	90                   	nop
    2e2b:	90                   	nop
    2e2c:	90                   	nop
    2e2d:	90                   	nop
    2e2e:	90                   	nop
    2e2f:	90                   	nop
    2e30:	90                   	nop
    2e31:	90                   	nop
    2e32:	90                   	nop
    2e33:	90                   	nop
    2e34:	90                   	nop
    2e35:	90                   	nop
    2e36:	90                   	nop
    2e37:	90                   	nop
    2e38:	90                   	nop
    2e39:	90                   	nop
    2e3a:	90                   	nop
    2e3b:	90                   	nop
    2e3c:	90                   	nop
    2e3d:	90                   	nop
    2e3e:	90                   	nop
    2e3f:	90                   	nop
    2e40:	90                   	nop
    2e41:	90                   	nop
    2e42:	90                   	nop
    2e43:	90                   	nop
    2e44:	90                   	nop
    2e45:	90                   	nop
    2e46:	90                   	nop
    2e47:	90                   	nop
    2e48:	90                   	nop
    2e49:	90                   	nop
    2e4a:	90                   	nop
    2e4b:	90                   	nop
    2e4c:	90                   	nop
    2e4d:	90                   	nop
    2e4e:	90                   	nop
    2e4f:	90                   	nop
    2e50:	90                   	nop
    2e51:	90                   	nop
    2e52:	90                   	nop
    2e53:	90                   	nop
    2e54:	90                   	nop
    2e55:	90                   	nop
    2e56:	90                   	nop
    2e57:	90                   	nop
    2e58:	90                   	nop
    2e59:	90                   	nop
    2e5a:	90                   	nop
    2e5b:	90                   	nop
    2e5c:	90                   	nop
    2e5d:	90                   	nop
    2e5e:	90                   	nop
    2e5f:	90                   	nop
    2e60:	90                   	nop
    2e61:	90                   	nop
    2e62:	90                   	nop
    2e63:	90                   	nop
    2e64:	90                   	nop
    2e65:	90                   	nop
    2e66:	90                   	nop
    2e67:	90                   	nop
    2e68:	90                   	nop
    2e69:	90                   	nop
    2e6a:	90                   	nop
    2e6b:	90                   	nop
    2e6c:	90                   	nop
    2e6d:	90                   	nop
    2e6e:	90                   	nop
    2e6f:	90                   	nop
    2e70:	90                   	nop
    2e71:	90                   	nop
    2e72:	90                   	nop
    2e73:	90                   	nop
    2e74:	90                   	nop
    2e75:	90                   	nop
    2e76:	90                   	nop
    2e77:	90                   	nop
    2e78:	90                   	nop
    2e79:	90                   	nop
    2e7a:	90                   	nop
    2e7b:	90                   	nop
    2e7c:	90                   	nop
    2e7d:	90                   	nop
    2e7e:	90                   	nop
    2e7f:	90                   	nop
    2e80:	90                   	nop
    2e81:	90                   	nop
    2e82:	90                   	nop
    2e83:	90                   	nop
    2e84:	90                   	nop
    2e85:	90                   	nop
    2e86:	90                   	nop
    2e87:	90                   	nop
    2e88:	90                   	nop
    2e89:	90                   	nop
    2e8a:	90                   	nop
    2e8b:	90                   	nop
    2e8c:	90                   	nop
    2e8d:	90                   	nop
    2e8e:	90                   	nop
    2e8f:	90                   	nop
    2e90:	90                   	nop
    2e91:	90                   	nop
    2e92:	90                   	nop
    2e93:	90                   	nop
    2e94:	90                   	nop
    2e95:	90                   	nop
    2e96:	90                   	nop
    2e97:	90                   	nop
    2e98:	90                   	nop
    2e99:	90                   	nop
    2e9a:	90                   	nop
    2e9b:	90                   	nop
    2e9c:	90                   	nop
    2e9d:	90                   	nop
    2e9e:	90                   	nop
    2e9f:	90                   	nop
    2ea0:	90                   	nop
    2ea1:	90                   	nop
    2ea2:	90                   	nop
    2ea3:	90                   	nop
    2ea4:	90                   	nop
    2ea5:	90                   	nop
    2ea6:	90                   	nop
    2ea7:	90                   	nop
    2ea8:	90                   	nop
    2ea9:	90                   	nop
    2eaa:	90                   	nop
    2eab:	90                   	nop
    2eac:	90                   	nop
    2ead:	90                   	nop
    2eae:	90                   	nop
    2eaf:	90                   	nop
    2eb0:	90                   	nop
    2eb1:	90                   	nop
    2eb2:	90                   	nop
    2eb3:	90                   	nop
    2eb4:	90                   	nop
    2eb5:	90                   	nop
    2eb6:	90                   	nop
    2eb7:	90                   	nop
    2eb8:	90                   	nop
    2eb9:	90                   	nop
    2eba:	90                   	nop
    2ebb:	90                   	nop
    2ebc:	90                   	nop
    2ebd:	90                   	nop
    2ebe:	90                   	nop
    2ebf:	90                   	nop
    2ec0:	90                   	nop
    2ec1:	90                   	nop
    2ec2:	90                   	nop
    2ec3:	90                   	nop
    2ec4:	90                   	nop
    2ec5:	90                   	nop
    2ec6:	90                   	nop
    2ec7:	90                   	nop
    2ec8:	90                   	nop
    2ec9:	90                   	nop
    2eca:	90                   	nop
    2ecb:	90                   	nop
    2ecc:	90                   	nop
    2ecd:	90                   	nop
    2ece:	90                   	nop
    2ecf:	90                   	nop
    2ed0:	90                   	nop
    2ed1:	90                   	nop
    2ed2:	90                   	nop
    2ed3:	90                   	nop
    2ed4:	90                   	nop
    2ed5:	90                   	nop
    2ed6:	90                   	nop
    2ed7:	90                   	nop
    2ed8:	90                   	nop
    2ed9:	90                   	nop
    2eda:	90                   	nop
    2edb:	90                   	nop
    2edc:	90                   	nop
    2edd:	90                   	nop
    2ede:	90                   	nop
    2edf:	90                   	nop
    2ee0:	90                   	nop
    2ee1:	90                   	nop
    2ee2:	90                   	nop
    2ee3:	90                   	nop
    2ee4:	90                   	nop
    2ee5:	90                   	nop
    2ee6:	90                   	nop
    2ee7:	90                   	nop
    2ee8:	90                   	nop
    2ee9:	90                   	nop
    2eea:	90                   	nop
    2eeb:	90                   	nop
    2eec:	90                   	nop
    2eed:	90                   	nop
    2eee:	90                   	nop
    2eef:	90                   	nop
    2ef0:	90                   	nop
    2ef1:	90                   	nop
    2ef2:	90                   	nop
    2ef3:	90                   	nop
    2ef4:	90                   	nop
    2ef5:	90                   	nop
    2ef6:	90                   	nop
    2ef7:	90                   	nop
    2ef8:	90                   	nop
    2ef9:	90                   	nop
    2efa:	90                   	nop
    2efb:	90                   	nop
    2efc:	90                   	nop
    2efd:	90                   	nop
    2efe:	90                   	nop
    2eff:	90                   	nop
    2f00:	90                   	nop
    2f01:	90                   	nop
    2f02:	90                   	nop
    2f03:	90                   	nop
    2f04:	90                   	nop
    2f05:	90                   	nop
    2f06:	90                   	nop
    2f07:	90                   	nop
    2f08:	90                   	nop
    2f09:	90                   	nop
    2f0a:	90                   	nop
    2f0b:	90                   	nop
    2f0c:	90                   	nop
    2f0d:	90                   	nop
    2f0e:	90                   	nop
    2f0f:	90                   	nop
    2f10:	90                   	nop
    2f11:	90                   	nop
    2f12:	90                   	nop
    2f13:	90                   	nop
    2f14:	90                   	nop
    2f15:	90                   	nop
    2f16:	90                   	nop
    2f17:	90                   	nop
    2f18:	90                   	nop
    2f19:	90                   	nop
    2f1a:	90                   	nop
    2f1b:	90                   	nop
    2f1c:	90                   	nop
    2f1d:	90                   	nop
    2f1e:	90                   	nop
    2f1f:	90                   	nop
    2f20:	90                   	nop
    2f21:	90                   	nop
    2f22:	90                   	nop
    2f23:	90                   	nop
    2f24:	90                   	nop
    2f25:	90                   	nop
    2f26:	90                   	nop
    2f27:	90                   	nop
    2f28:	90                   	nop
    2f29:	90                   	nop
    2f2a:	90                   	nop
    2f2b:	90                   	nop
    2f2c:	90                   	nop
    2f2d:	90                   	nop
    2f2e:	90                   	nop
    2f2f:	90                   	nop
    2f30:	90                   	nop
    2f31:	90                   	nop
    2f32:	90                   	nop
    2f33:	90                   	nop
    2f34:	90                   	nop
    2f35:	90                   	nop
    2f36:	90                   	nop
    2f37:	90                   	nop
    2f38:	90                   	nop
    2f39:	90                   	nop
    2f3a:	90                   	nop
    2f3b:	90                   	nop
    2f3c:	90                   	nop
    2f3d:	90                   	nop
    2f3e:	90                   	nop
    2f3f:	90                   	nop
    2f40:	90                   	nop
    2f41:	90                   	nop
    2f42:	90                   	nop
    2f43:	90                   	nop
    2f44:	90                   	nop
    2f45:	90                   	nop
    2f46:	90                   	nop
    2f47:	90                   	nop
    2f48:	90                   	nop
    2f49:	90                   	nop
    2f4a:	90                   	nop
    2f4b:	90                   	nop
    2f4c:	90                   	nop
    2f4d:	90                   	nop
    2f4e:	90                   	nop
    2f4f:	90                   	nop
    2f50:	90                   	nop
    2f51:	90                   	nop
    2f52:	90                   	nop
    2f53:	90                   	nop
    2f54:	90                   	nop
    2f55:	90                   	nop
    2f56:	90                   	nop
    2f57:	90                   	nop
    2f58:	90                   	nop
    2f59:	90                   	nop
    2f5a:	90                   	nop
    2f5b:	90                   	nop
    2f5c:	90                   	nop
    2f5d:	90                   	nop
    2f5e:	90                   	nop
    2f5f:	90                   	nop
    2f60:	90                   	nop
    2f61:	90                   	nop
    2f62:	90                   	nop
    2f63:	90                   	nop
    2f64:	90                   	nop
    2f65:	90                   	nop
    2f66:	90                   	nop
    2f67:	90                   	nop
    2f68:	90                   	nop
    2f69:	90                   	nop
    2f6a:	90                   	nop
    2f6b:	90                   	nop
    2f6c:	90                   	nop
    2f6d:	90                   	nop
    2f6e:	90                   	nop
    2f6f:	90                   	nop
    2f70:	90                   	nop
    2f71:	90                   	nop
    2f72:	90                   	nop
    2f73:	90                   	nop
    2f74:	90                   	nop
    2f75:	90                   	nop
    2f76:	90                   	nop
    2f77:	90                   	nop
    2f78:	90                   	nop
    2f79:	90                   	nop
    2f7a:	90                   	nop
    2f7b:	90                   	nop
    2f7c:	90                   	nop
    2f7d:	90                   	nop
    2f7e:	90                   	nop
    2f7f:	90                   	nop
    2f80:	90                   	nop
    2f81:	90                   	nop
    2f82:	90                   	nop
    2f83:	90                   	nop
    2f84:	90                   	nop
    2f85:	90                   	nop
    2f86:	90                   	nop
    2f87:	90                   	nop
    2f88:	90                   	nop
    2f89:	90                   	nop
    2f8a:	90                   	nop
    2f8b:	90                   	nop
    2f8c:	90                   	nop
    2f8d:	90                   	nop
    2f8e:	90                   	nop
    2f8f:	90                   	nop
    2f90:	90                   	nop
    2f91:	90                   	nop
    2f92:	90                   	nop
    2f93:	90                   	nop
    2f94:	90                   	nop
    2f95:	90                   	nop
    2f96:	90                   	nop
    2f97:	90                   	nop
    2f98:	90                   	nop
    2f99:	90                   	nop
    2f9a:	90                   	nop
    2f9b:	90                   	nop
    2f9c:	90                   	nop
    2f9d:	90                   	nop
    2f9e:	90                   	nop
    2f9f:	90                   	nop
    2fa0:	90                   	nop
    2fa1:	90                   	nop
    2fa2:	90                   	nop
    2fa3:	90                   	nop
    2fa4:	90                   	nop
    2fa5:	90                   	nop
    2fa6:	90                   	nop
    2fa7:	90                   	nop
    2fa8:	90                   	nop
    2fa9:	90                   	nop
    2faa:	90                   	nop
    2fab:	90                   	nop
    2fac:	90                   	nop
    2fad:	90                   	nop
    2fae:	90                   	nop
    2faf:	90                   	nop
    2fb0:	90                   	nop
    2fb1:	90                   	nop
    2fb2:	90                   	nop
    2fb3:	90                   	nop
    2fb4:	90                   	nop
    2fb5:	90                   	nop
    2fb6:	90                   	nop
    2fb7:	90                   	nop
    2fb8:	90                   	nop
    2fb9:	90                   	nop
    2fba:	90                   	nop
    2fbb:	90                   	nop
    2fbc:	90                   	nop
    2fbd:	90                   	nop
    2fbe:	90                   	nop
    2fbf:	90                   	nop
    2fc0:	90                   	nop
    2fc1:	90                   	nop
    2fc2:	90                   	nop
    2fc3:	90                   	nop
    2fc4:	90                   	nop
    2fc5:	90                   	nop
    2fc6:	90                   	nop
    2fc7:	90                   	nop
    2fc8:	90                   	nop
    2fc9:	90                   	nop
    2fca:	90                   	nop
    2fcb:	90                   	nop
    2fcc:	90                   	nop
    2fcd:	90                   	nop
    2fce:	90                   	nop
    2fcf:	90                   	nop
    2fd0:	90                   	nop
    2fd1:	90                   	nop
    2fd2:	90                   	nop
    2fd3:	90                   	nop
    2fd4:	90                   	nop
    2fd5:	90                   	nop
    2fd6:	90                   	nop
    2fd7:	90                   	nop
    2fd8:	90                   	nop
    2fd9:	90                   	nop
    2fda:	90                   	nop
    2fdb:	90                   	nop
    2fdc:	90                   	nop
    2fdd:	90                   	nop
    2fde:	90                   	nop
    2fdf:	90                   	nop
    2fe0:	90                   	nop
    2fe1:	90                   	nop
    2fe2:	90                   	nop
    2fe3:	90                   	nop
    2fe4:	90                   	nop
    2fe5:	90                   	nop
    2fe6:	90                   	nop
    2fe7:	90                   	nop
    2fe8:	90                   	nop
    2fe9:	90                   	nop
    2fea:	90                   	nop
    2feb:	90                   	nop
    2fec:	90                   	nop
    2fed:	90                   	nop
    2fee:	90                   	nop
    2fef:	90                   	nop
    2ff0:	90                   	nop
    2ff1:	90                   	nop
    2ff2:	90                   	nop
    2ff3:	90                   	nop
    2ff4:	90                   	nop
    2ff5:	90                   	nop
    2ff6:	90                   	nop
    2ff7:	90                   	nop
    2ff8:	90                   	nop
    2ff9:	90                   	nop
    2ffa:	90                   	nop
    2ffb:	90                   	nop
    2ffc:	90                   	nop
    2ffd:	90                   	nop
    2ffe:	90                   	nop
    2fff:	90                   	nop

0000000000003000 <_CDI_SLT>:
    3000:	e9 fb cf ff ff       	jmpq   0 <.CDI_sled_id_1_len-0x6>

Disassembly of section .CDI_RLT:

0000000000003005 <_CDI_RLT_JUMP_TABLE>:
    3005:	eb 02                	jmp    3009 <_CDI_RLT_strlen_AT_PLT>
    3007:	eb 26                	jmp    302f <_CDI_RLT_printf_AT_PLT>

0000000000003009 <_CDI_RLT_strlen_AT_PLT>:
    3009:	48 8d 2d 2e f0 ff ff 	lea    -0xfd2(%rip),%rbp        # 203e <_CDI_strlen_AT_PLT_TO_printer.s.print_message_1>
    3010:	48 39 6c 24 f8       	cmp    %rbp,-0x8(%rsp)
    3015:	0f 84 23 f0 ff ff    	je     203e <_CDI_strlen_AT_PLT_TO_printer.s.print_message_1>
    301b:	48 8b 35 07 00 00 00 	mov    0x7(%rip),%rsi        # 3029 <.CDI_sled_id_1>
    3022:	48 8b 15 dd cf ff ff 	mov    -0x3023(%rip),%rdx        # 6 <.CDI_sled_id_1_len>

0000000000003029 <.CDI_sled_id_1>:
    3029:	20 69 64             	and    %ch,0x64(%rcx)
    302c:	3d                   	.byte 0x3d
    302d:	31 00                	xor    %eax,(%rax)

000000000000302f <_CDI_RLT_printf_AT_PLT>:
    302f:	48 8d 2d 45 f0 ff ff 	lea    -0xfbb(%rip),%rbp        # 207b <_CDI_printf_AT_PLT_TO_printer.s.print_message_1>
    3036:	48 39 6c 24 f8       	cmp    %rbp,-0x8(%rsp)
    303b:	0f 84 3a f0 ff ff    	je     207b <_CDI_printf_AT_PLT_TO_printer.s.print_message_1>
    3041:	48 8d 2d 5a f0 ff ff 	lea    -0xfa6(%rip),%rbp        # 20a2 <_CDI_printf_AT_PLT_TO_printer.s.print_message_2>
    3048:	48 39 6c 24 f8       	cmp    %rbp,-0x8(%rsp)
    304d:	0f 84 4f f0 ff ff    	je     20a2 <_CDI_printf_AT_PLT_TO_printer.s.print_message_2>
    3053:	48 8b 35 07 00 00 00 	mov    0x7(%rip),%rsi        # 3061 <.CDI_sled_id_2>
    305a:	48 8b 15 a5 cf ff ff 	mov    -0x305b(%rip),%rdx        # 6 <.CDI_sled_id_1_len>

0000000000003061 <.CDI_sled_id_2>:
    3061:	20 69 64             	and    %ch,0x64(%rcx)
    3064:	3d                   	.byte 0x3d
    3065:	32 00                	xor    (%rax),%al

Disassembly of section .fini:

0000000000003068 <_fini>:
    3068:	48 83 ec 08          	sub    $0x8,%rsp
    306c:	48 83 c4 08          	add    $0x8,%rsp
    3070:	c3                   	retq   
